(dp0
S'GEMROC 0'
p1
(dp2
S'TIGER 2'
p3
(dp4
S'Ch 51'
p5
(dp6
S'TriggerBLatched'
p7
I1
sS'CounterMode'
p8
I0
sS'TriggerMode2B'
p9
I0
sS'MaxIntegTime'
p10
I5
sS'Integ'
p11
I1
sS'TriggerMode2E'
p12
I0
sS'MinIntegTime'
p13
I5
sS'Vth_T2'
p14
I0
sS'Vth_T1'
p15
I0
sS'QdcMode'
p16
I1
sS'TriggerMode'
p17
I3
sS'TP_disable_FE'
p18
I1
sS'TriggerMode2Q'
p19
I0
sS'TriggerMode2T'
p20
I0
ssS'Ch 42'
p21
(dp22
g7
I1
sg8
I0
sg9
I0
sg10
I5
sg11
I1
sg12
I0
sg13
I5
sg14
I0
sg15
I0
sg16
I1
sg17
I3
sg18
I1
sg19
I0
sg20
I0
ssS'Ch 53'
p23
(dp24
g7
I1
sg8
I0
sg9
I0
sg10
I5
sg11
I1
sg12
I0
sg13
I5
sg14
I0
sg15
I0
sg16
I1
sg17
I3
sg18
I1
sg19
I0
sg20
I0
ssS'Ch 52'
p25
(dp26
g7
I1
sg8
I0
sg9
I0
sg10
I5
sg11
I1
sg12
I0
sg13
I5
sg14
I0
sg15
I0
sg16
I1
sg17
I3
sg18
I1
sg19
I0
sg20
I0
ssS'Ch 55'
p27
(dp28
g7
I1
sg8
I0
sg9
I0
sg10
I5
sg11
I1
sg12
I0
sg13
I5
sg14
I0
sg15
I0
sg16
I1
sg17
I3
sg18
I1
sg19
I0
sg20
I0
ssS'Ch 54'
p29
(dp30
g7
I1
sg8
I0
sg9
I0
sg10
I5
sg11
I1
sg12
I0
sg13
I5
sg14
I0
sg15
I0
sg16
I1
sg17
I3
sg18
I1
sg19
I0
sg20
I0
ssS'Ch 57'
p31
(dp32
g7
I1
sg8
I0
sg9
I0
sg10
I5
sg11
I1
sg12
I0
sg13
I5
sg14
I0
sg15
I0
sg16
I1
sg17
I3
sg18
I1
sg19
I0
sg20
I0
ssS'Ch 43'
p33
(dp34
g7
I1
sg8
I0
sg9
I0
sg10
I5
sg11
I1
sg12
I0
sg13
I5
sg14
I0
sg15
I0
sg16
I1
sg17
I3
sg18
I1
sg19
I0
sg20
I0
ssS'Ch 59'
p35
(dp36
g7
I1
sg8
I0
sg9
I0
sg10
I5
sg11
I1
sg12
I0
sg13
I5
sg14
I0
sg15
I0
sg16
I1
sg17
I3
sg18
I1
sg19
I0
sg20
I0
ssS'Ch 58'
p37
(dp38
g7
I1
sg8
I0
sg9
I0
sg10
I5
sg11
I1
sg12
I0
sg13
I5
sg14
I0
sg15
I0
sg16
I1
sg17
I3
sg18
I1
sg19
I0
sg20
I0
ssS'Ch 56'
p39
(dp40
g7
I1
sg8
I0
sg9
I0
sg10
I5
sg11
I1
sg12
I0
sg13
I5
sg14
I0
sg15
I0
sg16
I1
sg17
I3
sg18
I1
sg19
I0
sg20
I0
ssS'Ch 40'
p41
(dp42
g7
I1
sg8
I0
sg9
I0
sg10
I5
sg11
I1
sg12
I0
sg13
I5
sg14
I0
sg15
I0
sg16
I1
sg17
I3
sg18
I1
sg19
I0
sg20
I0
ssS'Ch 33'
p43
(dp44
g7
I1
sg8
I0
sg9
I0
sg10
I5
sg11
I1
sg12
I0
sg13
I5
sg14
I0
sg15
I0
sg16
I1
sg17
I3
sg18
I1
sg19
I0
sg20
I0
ssS'Ch 39'
p45
(dp46
g7
I1
sg8
I0
sg9
I0
sg10
I5
sg11
I1
sg12
I0
sg13
I5
sg14
I0
sg15
I0
sg16
I1
sg17
I3
sg18
I1
sg19
I0
sg20
I0
ssS'Ch 38'
p47
(dp48
g7
I1
sg8
I0
sg9
I0
sg10
I5
sg11
I1
sg12
I0
sg13
I5
sg14
I0
sg15
I0
sg16
I1
sg17
I3
sg18
I1
sg19
I0
sg20
I0
ssS'Ch 19'
p49
(dp50
g7
I1
sg8
I0
sg9
I0
sg10
I5
sg11
I1
sg12
I0
sg13
I5
sg14
I0
sg15
I0
sg16
I1
sg17
I3
sg18
I1
sg19
I0
sg20
I0
ssS'Ch 18'
p51
(dp52
g7
I1
sg8
I0
sg9
I0
sg10
I5
sg11
I1
sg12
I0
sg13
I5
sg14
I0
sg15
I0
sg16
I1
sg17
I3
sg18
I1
sg19
I0
sg20
I0
ssS'Ch 32'
p53
(dp54
g7
I1
sg8
I0
sg9
I0
sg10
I5
sg11
I1
sg12
I0
sg13
I5
sg14
I0
sg15
I0
sg16
I1
sg17
I3
sg18
I1
sg19
I0
sg20
I0
ssS'Ch 15'
p55
(dp56
g7
I1
sg8
I0
sg9
I0
sg10
I5
sg11
I1
sg12
I0
sg13
I5
sg14
I0
sg15
I0
sg16
I1
sg17
I3
sg18
I1
sg19
I0
sg20
I0
ssS'Ch 14'
p57
(dp58
g7
I1
sg8
I0
sg9
I0
sg10
I5
sg11
I1
sg12
I0
sg13
I5
sg14
I0
sg15
I0
sg16
I1
sg17
I3
sg18
I1
sg19
I0
sg20
I0
ssS'Ch 17'
p59
(dp60
g7
I1
sg8
I0
sg9
I0
sg10
I5
sg11
I1
sg12
I0
sg13
I5
sg14
I0
sg15
I0
sg16
I1
sg17
I3
sg18
I1
sg19
I0
sg20
I0
ssS'Ch 16'
p61
(dp62
g7
I1
sg8
I0
sg9
I0
sg10
I5
sg11
I1
sg12
I0
sg13
I5
sg14
I0
sg15
I0
sg16
I1
sg17
I3
sg18
I1
sg19
I0
sg20
I0
ssS'Ch 11'
p63
(dp64
g7
I1
sg8
I0
sg9
I0
sg10
I5
sg11
I1
sg12
I0
sg13
I5
sg14
I0
sg15
I0
sg16
I1
sg17
I3
sg18
I1
sg19
I0
sg20
I0
ssS'Ch 10'
p65
(dp66
g7
I1
sg8
I0
sg9
I0
sg10
I5
sg11
I1
sg12
I0
sg13
I5
sg14
I0
sg15
I0
sg16
I1
sg17
I3
sg18
I1
sg19
I0
sg20
I0
ssS'Ch 13'
p67
(dp68
g7
I1
sg8
I0
sg9
I0
sg10
I5
sg11
I1
sg12
I0
sg13
I5
sg14
I0
sg15
I0
sg16
I1
sg17
I3
sg18
I1
sg19
I0
sg20
I0
ssS'Ch 12'
p69
(dp70
g7
I1
sg8
I0
sg9
I0
sg10
I5
sg11
I1
sg12
I0
sg13
I5
sg14
I0
sg15
I0
sg16
I1
sg17
I3
sg18
I1
sg19
I0
sg20
I0
ssS'Ch 30'
p71
(dp72
g7
I1
sg8
I0
sg9
I0
sg10
I5
sg11
I1
sg12
I0
sg13
I5
sg14
I0
sg15
I0
sg16
I1
sg17
I3
sg18
I1
sg19
I0
sg20
I0
ssS'Ch 44'
p73
(dp74
g7
I1
sg8
I0
sg9
I0
sg10
I5
sg11
I1
sg12
I0
sg13
I5
sg14
I0
sg15
I0
sg16
I1
sg17
I3
sg18
I1
sg19
I0
sg20
I0
ssS'Ch 35'
p75
(dp76
g7
I1
sg8
I0
sg9
I0
sg10
I5
sg11
I1
sg12
I0
sg13
I5
sg14
I0
sg15
I0
sg16
I1
sg17
I3
sg18
I1
sg19
I0
sg20
I0
ssS'Ch 62'
p77
(dp78
g7
I1
sg8
I0
sg9
I0
sg10
I5
sg11
I1
sg12
I0
sg13
I5
sg14
I0
sg15
I0
sg16
I1
sg17
I3
sg18
I1
sg19
I0
sg20
I0
ssS'Ch 37'
p79
(dp80
g7
I1
sg8
I0
sg9
I0
sg10
I5
sg11
I1
sg12
I0
sg13
I5
sg14
I0
sg15
I0
sg16
I1
sg17
I3
sg18
I1
sg19
I0
sg20
I0
ssS'Ch 45'
p81
(dp82
g7
I1
sg8
I0
sg9
I0
sg10
I5
sg11
I1
sg12
I0
sg13
I5
sg14
I0
sg15
I0
sg16
I1
sg17
I3
sg18
I1
sg19
I0
sg20
I0
ssS'Ch 31'
p83
(dp84
g7
I1
sg8
I0
sg9
I0
sg10
I5
sg11
I1
sg12
I0
sg13
I5
sg14
I0
sg15
I0
sg16
I1
sg17
I3
sg18
I1
sg19
I0
sg20
I0
ssS'Ch 36'
p85
(dp86
g7
I1
sg8
I0
sg9
I0
sg10
I5
sg11
I1
sg12
I0
sg13
I5
sg14
I0
sg15
I0
sg16
I1
sg17
I3
sg18
I1
sg19
I0
sg20
I0
ssS'Ch 41'
p87
(dp88
g7
I1
sg8
I0
sg9
I0
sg10
I5
sg11
I1
sg12
I0
sg13
I5
sg14
I0
sg15
I0
sg16
I1
sg17
I3
sg18
I1
sg19
I0
sg20
I0
ssS'Ch 9'
p89
(dp90
g7
I1
sg8
I0
sg9
I0
sg10
I5
sg11
I1
sg12
I0
sg13
I5
sg14
I0
sg15
I0
sg16
I1
sg17
I3
sg18
I1
sg19
I0
sg20
I0
ssS'Ch 8'
p91
(dp92
g7
I1
sg8
I0
sg9
I0
sg10
I5
sg11
I1
sg12
I0
sg13
I5
sg14
I0
sg15
I0
sg16
I1
sg17
I3
sg18
I1
sg19
I0
sg20
I0
ssS'Ch 5'
p93
(dp94
g7
I1
sg8
I0
sg9
I0
sg10
I5
sg11
I1
sg12
I0
sg13
I5
sg14
I0
sg15
I0
sg16
I1
sg17
I3
sg18
I1
sg19
I0
sg20
I0
ssS'Ch 4'
p95
(dp96
g7
I1
sg8
I0
sg9
I0
sg10
I5
sg11
I1
sg12
I0
sg13
I5
sg14
I0
sg15
I0
sg16
I1
sg17
I3
sg18
I1
sg19
I0
sg20
I0
ssS'Ch 7'
p97
(dp98
g7
I1
sg8
I0
sg9
I0
sg10
I5
sg11
I1
sg12
I0
sg13
I5
sg14
I0
sg15
I0
sg16
I1
sg17
I3
sg18
I1
sg19
I0
sg20
I0
ssS'Ch 6'
p99
(dp100
g7
I1
sg8
I0
sg9
I0
sg10
I5
sg11
I1
sg12
I0
sg13
I5
sg14
I0
sg15
I0
sg16
I1
sg17
I3
sg18
I1
sg19
I0
sg20
I0
ssS'Ch 1'
p101
(dp102
g7
I1
sg8
I0
sg9
I0
sg10
I5
sg11
I1
sg12
I0
sg13
I5
sg14
I0
sg15
I0
sg16
I1
sg17
I3
sg18
I1
sg19
I0
sg20
I0
ssS'Ch 0'
p103
(dp104
g7
I1
sg8
I0
sg9
I0
sg10
I5
sg11
I1
sg12
I0
sg13
I5
sg14
I0
sg15
I0
sg16
I1
sg17
I3
sg18
I1
sg19
I0
sg20
I0
ssS'Ch 3'
p105
(dp106
g7
I1
sg8
I0
sg9
I0
sg10
I5
sg11
I1
sg12
I0
sg13
I5
sg14
I0
sg15
I0
sg16
I1
sg17
I3
sg18
I1
sg19
I0
sg20
I0
ssS'Ch 2'
p107
(dp108
g7
I1
sg8
I0
sg9
I0
sg10
I5
sg11
I1
sg12
I0
sg13
I5
sg14
I0
sg15
I0
sg16
I1
sg17
I3
sg18
I1
sg19
I0
sg20
I0
ssS'Ch 24'
p109
(dp110
g7
I1
sg8
I0
sg9
I0
sg10
I5
sg11
I1
sg12
I0
sg13
I5
sg14
I0
sg15
I0
sg16
I1
sg17
I3
sg18
I1
sg19
I0
sg20
I0
ssS'Ch 25'
p111
(dp112
g7
I1
sg8
I0
sg9
I0
sg10
I5
sg11
I1
sg12
I0
sg13
I5
sg14
I0
sg15
I0
sg16
I1
sg17
I3
sg18
I1
sg19
I0
sg20
I0
ssS'Ch 26'
p113
(dp114
g7
I1
sg8
I0
sg9
I0
sg10
I5
sg11
I1
sg12
I0
sg13
I5
sg14
I0
sg15
I0
sg16
I1
sg17
I3
sg18
I1
sg19
I0
sg20
I0
ssS'Ch 27'
p115
(dp116
g7
I1
sg8
I0
sg9
I0
sg10
I5
sg11
I1
sg12
I0
sg13
I5
sg14
I0
sg15
I0
sg16
I1
sg17
I3
sg18
I1
sg19
I0
sg20
I0
ssS'Ch 20'
p117
(dp118
g7
I1
sg8
I0
sg9
I0
sg10
I5
sg11
I1
sg12
I0
sg13
I5
sg14
I0
sg15
I0
sg16
I1
sg17
I3
sg18
I1
sg19
I0
sg20
I0
ssS'Ch 21'
p119
(dp120
g7
I1
sg8
I0
sg9
I0
sg10
I5
sg11
I1
sg12
I0
sg13
I5
sg14
I0
sg15
I0
sg16
I1
sg17
I3
sg18
I1
sg19
I0
sg20
I0
ssS'Ch 22'
p121
(dp122
g7
I1
sg8
I0
sg9
I0
sg10
I5
sg11
I1
sg12
I0
sg13
I5
sg14
I0
sg15
I0
sg16
I1
sg17
I3
sg18
I1
sg19
I0
sg20
I0
ssS'Ch 23'
p123
(dp124
g7
I1
sg8
I0
sg9
I0
sg10
I5
sg11
I1
sg12
I0
sg13
I5
sg14
I0
sg15
I0
sg16
I1
sg17
I3
sg18
I1
sg19
I0
sg20
I0
ssS'Ch 60'
p125
(dp126
g7
I1
sg8
I0
sg9
I0
sg10
I5
sg11
I1
sg12
I0
sg13
I5
sg14
I0
sg15
I0
sg16
I1
sg17
I3
sg18
I1
sg19
I0
sg20
I0
ssS'Ch 61'
p127
(dp128
g7
I1
sg8
I0
sg9
I0
sg10
I5
sg11
I1
sg12
I0
sg13
I5
sg14
I0
sg15
I0
sg16
I1
sg17
I3
sg18
I1
sg19
I0
sg20
I0
ssS'Ch 48'
p129
(dp130
g7
I1
sg8
I0
sg9
I0
sg10
I5
sg11
I1
sg12
I0
sg13
I5
sg14
I0
sg15
I0
sg16
I1
sg17
I3
sg18
I1
sg19
I0
sg20
I0
ssS'Ch 49'
p131
(dp132
g7
I1
sg8
I0
sg9
I0
sg10
I5
sg11
I1
sg12
I0
sg13
I5
sg14
I0
sg15
I0
sg16
I1
sg17
I3
sg18
I1
sg19
I0
sg20
I0
ssS'Ch 28'
p133
(dp134
g7
I1
sg8
I0
sg9
I0
sg10
I5
sg11
I1
sg12
I0
sg13
I5
sg14
I0
sg15
I0
sg16
I1
sg17
I3
sg18
I1
sg19
I0
sg20
I0
ssS'Ch 29'
p135
(dp136
g7
I1
sg8
I0
sg9
I0
sg10
I5
sg11
I1
sg12
I0
sg13
I5
sg14
I0
sg15
I0
sg16
I1
sg17
I3
sg18
I1
sg19
I0
sg20
I0
ssS'Ch 46'
p137
(dp138
g7
I1
sg8
I0
sg9
I0
sg10
I5
sg11
I1
sg12
I0
sg13
I5
sg14
I0
sg15
I0
sg16
I1
sg17
I3
sg18
I1
sg19
I0
sg20
I0
ssS'Ch 50'
p139
(dp140
g7
I1
sg8
I0
sg9
I0
sg10
I5
sg11
I1
sg12
I0
sg13
I5
sg14
I0
sg15
I0
sg16
I1
sg17
I3
sg18
I1
sg19
I0
sg20
I0
ssS'Ch 63'
p141
(dp142
g7
I1
sg8
I0
sg9
I0
sg10
I5
sg11
I1
sg12
I0
sg13
I5
sg14
I0
sg15
I0
sg16
I1
sg17
I3
sg18
I1
sg19
I0
sg20
I0
ssS'Global'
p143
(dp144
S'Vref_integ_diff'
p145
I39
sS'TxMode'
p146
I2
sS'DataClkDiv'
p147
I0
sS'BiasFE_A1'
p148
I14
sS'StopRampEnable'
p149
I0
sS'TACrefreshPeriod'
p150
I9
sS'TxDDR'
p151
I0
sS'Sig_pol'
p152
I1
sS'TDCClkdiv'
p153
I0
sS'AVcasp_global'
p154
I19
sS'CounterEnable'
p155
I0
sS'DiscVcasN'
p156
I15
sS'TDCIref_cs'
p157
I15
sS'Ch_DebugMode'
p158
I0
sS'IntegVb1'
p159
I60
sS'CounterPeriod'
p160
I2
sS'BiasFE_PpreN'
p161
I0
sS'TxLinks'
p162
I1
sS'TDCVcasPHyst'
p163
I55
sS'RClkEnable'
p164
I7
sS'TDCcompVcas'
p165
I0
sS'VetoMode'
p166
I0
sS'TDCVcasP'
p167
I29
sS'ShaperIbias'
p168
I0
sS'Vref_Integ'
p169
I0
sS'DiscFE_Ibias'
p170
I50
sS'TDCVcasN'
p171
I0
sS'Vcasp_Vth'
p172
I55
sS'TACrefreshEnable'
p173
I1
sS'TP_Vcal'
p174
I4
sS'TP_Vcal_ref'
p175
I23
sS'TAC_I_LSB'
p176
I0
sS'IBiasTPcal'
p177
I24
sS'BufferBias'
p178
I0
sS'IPostamp'
p179
I26
sS'FE_TPEnable'
p180
I0
sS'TDCcompVbias'
p181
I0
ssS'Ch 47'
p182
(dp183
g7
I1
sg8
I0
sg9
I0
sg10
I5
sg11
I1
sg12
I0
sg13
I5
sg14
I0
sg15
I0
sg16
I1
sg17
I3
sg18
I1
sg19
I0
sg20
I0
ssS'Ch 34'
p184
(dp185
g7
I1
sg8
I0
sg9
I0
sg10
I5
sg11
I1
sg12
I0
sg13
I5
sg14
I0
sg15
I0
sg16
I1
sg17
I3
sg18
I1
sg19
I0
sg20
I0
sssS'TIGER 3'
p186
(dp187
S'Ch 51'
p188
(dp189
g7
I1
sg8
I0
sg9
I0
sg10
I5
sg11
I1
sg12
I0
sg13
I5
sg14
I0
sg15
I0
sg16
I1
sg17
I3
sg18
I1
sg19
I0
sg20
I0
ssS'Ch 42'
p190
(dp191
g7
I1
sg8
I0
sg9
I0
sg10
I5
sg11
I1
sg12
I0
sg13
I5
sg14
I0
sg15
I0
sg16
I1
sg17
I3
sg18
I1
sg19
I0
sg20
I0
ssS'Ch 53'
p192
(dp193
g7
I1
sg8
I0
sg9
I0
sg10
I5
sg11
I1
sg12
I0
sg13
I5
sg14
I0
sg15
I0
sg16
I1
sg17
I3
sg18
I1
sg19
I0
sg20
I0
ssS'Ch 52'
p194
(dp195
g7
I1
sg8
I0
sg9
I0
sg10
I5
sg11
I1
sg12
I0
sg13
I5
sg14
I0
sg15
I0
sg16
I1
sg17
I3
sg18
I1
sg19
I0
sg20
I0
ssS'Ch 55'
p196
(dp197
g7
I1
sg8
I0
sg9
I0
sg10
I5
sg11
I1
sg12
I0
sg13
I5
sg14
I0
sg15
I0
sg16
I1
sg17
I3
sg18
I1
sg19
I0
sg20
I0
ssS'Ch 54'
p198
(dp199
g7
I1
sg8
I0
sg9
I0
sg10
I5
sg11
I1
sg12
I0
sg13
I5
sg14
I0
sg15
I0
sg16
I1
sg17
I3
sg18
I1
sg19
I0
sg20
I0
ssS'Ch 57'
p200
(dp201
g7
I1
sg8
I0
sg9
I0
sg10
I5
sg11
I1
sg12
I0
sg13
I5
sg14
I0
sg15
I0
sg16
I1
sg17
I3
sg18
I1
sg19
I0
sg20
I0
ssS'Ch 43'
p202
(dp203
g7
I1
sg8
I0
sg9
I0
sg10
I5
sg11
I1
sg12
I0
sg13
I5
sg14
I0
sg15
I0
sg16
I1
sg17
I3
sg18
I1
sg19
I0
sg20
I0
ssS'Ch 59'
p204
(dp205
g7
I1
sg8
I0
sg9
I0
sg10
I5
sg11
I1
sg12
I0
sg13
I5
sg14
I0
sg15
I0
sg16
I1
sg17
I3
sg18
I1
sg19
I0
sg20
I0
ssS'Ch 58'
p206
(dp207
g7
I1
sg8
I0
sg9
I0
sg10
I5
sg11
I1
sg12
I0
sg13
I5
sg14
I0
sg15
I0
sg16
I1
sg17
I3
sg18
I1
sg19
I0
sg20
I0
ssS'Ch 56'
p208
(dp209
g7
I1
sg8
I0
sg9
I0
sg10
I5
sg11
I1
sg12
I0
sg13
I5
sg14
I0
sg15
I0
sg16
I1
sg17
I3
sg18
I1
sg19
I0
sg20
I0
ssS'Ch 40'
p210
(dp211
g7
I1
sg8
I0
sg9
I0
sg10
I5
sg11
I1
sg12
I0
sg13
I5
sg14
I0
sg15
I0
sg16
I1
sg17
I3
sg18
I1
sg19
I0
sg20
I0
ssS'Ch 33'
p212
(dp213
g7
I1
sg8
I0
sg9
I0
sg10
I5
sg11
I1
sg12
I0
sg13
I5
sg14
I0
sg15
I0
sg16
I1
sg17
I3
sg18
I1
sg19
I0
sg20
I0
ssS'Ch 39'
p214
(dp215
g7
I1
sg8
I0
sg9
I0
sg10
I5
sg11
I1
sg12
I0
sg13
I5
sg14
I0
sg15
I0
sg16
I1
sg17
I3
sg18
I1
sg19
I0
sg20
I0
ssS'Ch 38'
p216
(dp217
g7
I1
sg8
I0
sg9
I0
sg10
I5
sg11
I1
sg12
I0
sg13
I5
sg14
I0
sg15
I0
sg16
I1
sg17
I3
sg18
I1
sg19
I0
sg20
I0
ssS'Ch 19'
p218
(dp219
g7
I1
sg8
I0
sg9
I0
sg10
I5
sg11
I1
sg12
I0
sg13
I5
sg14
I0
sg15
I0
sg16
I1
sg17
I3
sg18
I1
sg19
I0
sg20
I0
ssS'Ch 18'
p220
(dp221
g7
I1
sg8
I0
sg9
I0
sg10
I5
sg11
I1
sg12
I0
sg13
I5
sg14
I0
sg15
I0
sg16
I1
sg17
I3
sg18
I1
sg19
I0
sg20
I0
ssS'Ch 32'
p222
(dp223
g7
I1
sg8
I0
sg9
I0
sg10
I5
sg11
I1
sg12
I0
sg13
I5
sg14
I0
sg15
I0
sg16
I1
sg17
I3
sg18
I1
sg19
I0
sg20
I0
ssS'Ch 15'
p224
(dp225
g7
I1
sg8
I0
sg9
I0
sg10
I5
sg11
I1
sg12
I0
sg13
I5
sg14
I0
sg15
I0
sg16
I1
sg17
I3
sg18
I1
sg19
I0
sg20
I0
ssS'Ch 14'
p226
(dp227
g7
I1
sg8
I0
sg9
I0
sg10
I5
sg11
I1
sg12
I0
sg13
I5
sg14
I0
sg15
I0
sg16
I1
sg17
I3
sg18
I1
sg19
I0
sg20
I0
ssS'Ch 17'
p228
(dp229
g7
I1
sg8
I0
sg9
I0
sg10
I5
sg11
I1
sg12
I0
sg13
I5
sg14
I0
sg15
I0
sg16
I1
sg17
I3
sg18
I1
sg19
I0
sg20
I0
ssS'Ch 16'
p230
(dp231
g7
I1
sg8
I0
sg9
I0
sg10
I5
sg11
I1
sg12
I0
sg13
I5
sg14
I0
sg15
I0
sg16
I1
sg17
I3
sg18
I1
sg19
I0
sg20
I0
ssS'Ch 11'
p232
(dp233
g7
I1
sg8
I0
sg9
I0
sg10
I5
sg11
I1
sg12
I0
sg13
I5
sg14
I0
sg15
I0
sg16
I1
sg17
I3
sg18
I1
sg19
I0
sg20
I0
ssS'Ch 10'
p234
(dp235
g7
I1
sg8
I0
sg9
I0
sg10
I5
sg11
I1
sg12
I0
sg13
I5
sg14
I0
sg15
I0
sg16
I1
sg17
I3
sg18
I1
sg19
I0
sg20
I0
ssS'Ch 13'
p236
(dp237
g7
I1
sg8
I0
sg9
I0
sg10
I5
sg11
I1
sg12
I0
sg13
I5
sg14
I0
sg15
I0
sg16
I1
sg17
I3
sg18
I1
sg19
I0
sg20
I0
ssS'Ch 12'
p238
(dp239
g7
I1
sg8
I0
sg9
I0
sg10
I5
sg11
I1
sg12
I0
sg13
I5
sg14
I0
sg15
I0
sg16
I1
sg17
I3
sg18
I1
sg19
I0
sg20
I0
ssS'Ch 30'
p240
(dp241
g7
I1
sg8
I0
sg9
I0
sg10
I5
sg11
I1
sg12
I0
sg13
I5
sg14
I0
sg15
I0
sg16
I1
sg17
I3
sg18
I1
sg19
I0
sg20
I0
ssS'Ch 44'
p242
(dp243
g7
I1
sg8
I0
sg9
I0
sg10
I5
sg11
I1
sg12
I0
sg13
I5
sg14
I0
sg15
I0
sg16
I1
sg17
I3
sg18
I1
sg19
I0
sg20
I0
ssS'Ch 35'
p244
(dp245
g7
I1
sg8
I0
sg9
I0
sg10
I5
sg11
I1
sg12
I0
sg13
I5
sg14
I0
sg15
I0
sg16
I1
sg17
I3
sg18
I1
sg19
I0
sg20
I0
ssS'Ch 62'
p246
(dp247
g7
I1
sg8
I0
sg9
I0
sg10
I5
sg11
I1
sg12
I0
sg13
I5
sg14
I0
sg15
I0
sg16
I1
sg17
I3
sg18
I1
sg19
I0
sg20
I0
ssS'Ch 37'
p248
(dp249
g7
I1
sg8
I0
sg9
I0
sg10
I5
sg11
I1
sg12
I0
sg13
I5
sg14
I0
sg15
I0
sg16
I1
sg17
I3
sg18
I1
sg19
I0
sg20
I0
ssS'Ch 45'
p250
(dp251
g7
I1
sg8
I0
sg9
I0
sg10
I5
sg11
I1
sg12
I0
sg13
I5
sg14
I0
sg15
I0
sg16
I1
sg17
I3
sg18
I1
sg19
I0
sg20
I0
ssS'Ch 31'
p252
(dp253
g7
I1
sg8
I0
sg9
I0
sg10
I5
sg11
I1
sg12
I0
sg13
I5
sg14
I0
sg15
I0
sg16
I1
sg17
I3
sg18
I1
sg19
I0
sg20
I0
ssS'Ch 36'
p254
(dp255
g7
I1
sg8
I0
sg9
I0
sg10
I5
sg11
I1
sg12
I0
sg13
I5
sg14
I0
sg15
I0
sg16
I1
sg17
I3
sg18
I1
sg19
I0
sg20
I0
ssS'Ch 41'
p256
(dp257
g7
I1
sg8
I0
sg9
I0
sg10
I5
sg11
I1
sg12
I0
sg13
I5
sg14
I0
sg15
I0
sg16
I1
sg17
I3
sg18
I1
sg19
I0
sg20
I0
ssS'Ch 9'
p258
(dp259
g7
I1
sg8
I0
sg9
I0
sg10
I5
sg11
I1
sg12
I0
sg13
I5
sg14
I0
sg15
I0
sg16
I1
sg17
I3
sg18
I1
sg19
I0
sg20
I0
ssS'Ch 8'
p260
(dp261
g7
I1
sg8
I0
sg9
I0
sg10
I5
sg11
I1
sg12
I0
sg13
I5
sg14
I0
sg15
I0
sg16
I1
sg17
I3
sg18
I1
sg19
I0
sg20
I0
ssS'Ch 5'
p262
(dp263
g7
I1
sg8
I0
sg9
I0
sg10
I5
sg11
I1
sg12
I0
sg13
I5
sg14
I0
sg15
I0
sg16
I1
sg17
I3
sg18
I1
sg19
I0
sg20
I0
ssS'Ch 4'
p264
(dp265
g7
I1
sg8
I0
sg9
I0
sg10
I5
sg11
I1
sg12
I0
sg13
I5
sg14
I0
sg15
I0
sg16
I1
sg17
I3
sg18
I1
sg19
I0
sg20
I0
ssS'Ch 7'
p266
(dp267
g7
I1
sg8
I0
sg9
I0
sg10
I5
sg11
I1
sg12
I0
sg13
I5
sg14
I0
sg15
I0
sg16
I1
sg17
I3
sg18
I1
sg19
I0
sg20
I0
ssS'Ch 6'
p268
(dp269
g7
I1
sg8
I0
sg9
I0
sg10
I5
sg11
I1
sg12
I0
sg13
I5
sg14
I0
sg15
I0
sg16
I1
sg17
I3
sg18
I1
sg19
I0
sg20
I0
ssS'Ch 1'
p270
(dp271
g7
I1
sg8
I0
sg9
I0
sg10
I5
sg11
I1
sg12
I0
sg13
I5
sg14
I0
sg15
I0
sg16
I1
sg17
I3
sg18
I1
sg19
I0
sg20
I0
ssS'Ch 0'
p272
(dp273
g7
I1
sg8
I0
sg9
I0
sg10
I5
sg11
I1
sg12
I0
sg13
I5
sg14
I0
sg15
I0
sg16
I1
sg17
I3
sg18
I1
sg19
I0
sg20
I0
ssS'Ch 3'
p274
(dp275
g7
I1
sg8
I0
sg9
I0
sg10
I5
sg11
I1
sg12
I0
sg13
I5
sg14
I0
sg15
I0
sg16
I1
sg17
I3
sg18
I1
sg19
I0
sg20
I0
ssS'Ch 2'
p276
(dp277
g7
I1
sg8
I0
sg9
I0
sg10
I5
sg11
I1
sg12
I0
sg13
I5
sg14
I0
sg15
I0
sg16
I1
sg17
I3
sg18
I1
sg19
I0
sg20
I0
ssS'Ch 24'
p278
(dp279
g7
I1
sg8
I0
sg9
I0
sg10
I5
sg11
I1
sg12
I0
sg13
I5
sg14
I0
sg15
I0
sg16
I1
sg17
I3
sg18
I1
sg19
I0
sg20
I0
ssS'Ch 25'
p280
(dp281
g7
I1
sg8
I0
sg9
I0
sg10
I5
sg11
I1
sg12
I0
sg13
I5
sg14
I0
sg15
I0
sg16
I1
sg17
I3
sg18
I1
sg19
I0
sg20
I0
ssS'Ch 26'
p282
(dp283
g7
I1
sg8
I0
sg9
I0
sg10
I5
sg11
I1
sg12
I0
sg13
I5
sg14
I0
sg15
I0
sg16
I1
sg17
I3
sg18
I1
sg19
I0
sg20
I0
ssS'Ch 27'
p284
(dp285
g7
I1
sg8
I0
sg9
I0
sg10
I5
sg11
I1
sg12
I0
sg13
I5
sg14
I0
sg15
I0
sg16
I1
sg17
I3
sg18
I1
sg19
I0
sg20
I0
ssS'Ch 20'
p286
(dp287
g7
I1
sg8
I0
sg9
I0
sg10
I5
sg11
I1
sg12
I0
sg13
I5
sg14
I0
sg15
I0
sg16
I1
sg17
I3
sg18
I1
sg19
I0
sg20
I0
ssS'Ch 21'
p288
(dp289
g7
I1
sg8
I0
sg9
I0
sg10
I5
sg11
I1
sg12
I0
sg13
I5
sg14
I0
sg15
I0
sg16
I1
sg17
I3
sg18
I1
sg19
I0
sg20
I0
ssS'Ch 22'
p290
(dp291
g7
I1
sg8
I0
sg9
I0
sg10
I5
sg11
I1
sg12
I0
sg13
I5
sg14
I0
sg15
I0
sg16
I1
sg17
I3
sg18
I1
sg19
I0
sg20
I0
ssS'Ch 23'
p292
(dp293
g7
I1
sg8
I0
sg9
I0
sg10
I5
sg11
I1
sg12
I0
sg13
I5
sg14
I0
sg15
I0
sg16
I1
sg17
I3
sg18
I1
sg19
I0
sg20
I0
ssS'Ch 60'
p294
(dp295
g7
I1
sg8
I0
sg9
I0
sg10
I5
sg11
I1
sg12
I0
sg13
I5
sg14
I0
sg15
I0
sg16
I1
sg17
I3
sg18
I1
sg19
I0
sg20
I0
ssS'Ch 61'
p296
(dp297
g7
I1
sg8
I0
sg9
I0
sg10
I5
sg11
I1
sg12
I0
sg13
I5
sg14
I0
sg15
I0
sg16
I1
sg17
I3
sg18
I1
sg19
I0
sg20
I0
ssS'Ch 48'
p298
(dp299
g7
I1
sg8
I0
sg9
I0
sg10
I5
sg11
I1
sg12
I0
sg13
I5
sg14
I0
sg15
I0
sg16
I1
sg17
I3
sg18
I1
sg19
I0
sg20
I0
ssS'Ch 49'
p300
(dp301
g7
I1
sg8
I0
sg9
I0
sg10
I5
sg11
I1
sg12
I0
sg13
I5
sg14
I0
sg15
I0
sg16
I1
sg17
I3
sg18
I1
sg19
I0
sg20
I0
ssS'Ch 28'
p302
(dp303
g7
I1
sg8
I0
sg9
I0
sg10
I5
sg11
I1
sg12
I0
sg13
I5
sg14
I0
sg15
I0
sg16
I1
sg17
I3
sg18
I1
sg19
I0
sg20
I0
ssS'Ch 29'
p304
(dp305
g7
I1
sg8
I0
sg9
I0
sg10
I5
sg11
I1
sg12
I0
sg13
I5
sg14
I0
sg15
I0
sg16
I1
sg17
I3
sg18
I1
sg19
I0
sg20
I0
ssS'Ch 46'
p306
(dp307
g7
I1
sg8
I0
sg9
I0
sg10
I5
sg11
I1
sg12
I0
sg13
I5
sg14
I0
sg15
I0
sg16
I1
sg17
I3
sg18
I1
sg19
I0
sg20
I0
ssS'Ch 50'
p308
(dp309
g7
I1
sg8
I0
sg9
I0
sg10
I5
sg11
I1
sg12
I0
sg13
I5
sg14
I0
sg15
I0
sg16
I1
sg17
I3
sg18
I1
sg19
I0
sg20
I0
ssS'Ch 63'
p310
(dp311
g7
I1
sg8
I0
sg9
I0
sg10
I5
sg11
I1
sg12
I0
sg13
I5
sg14
I0
sg15
I0
sg16
I1
sg17
I3
sg18
I1
sg19
I0
sg20
I0
ssg143
(dp312
g145
I39
sg146
I2
sg147
I0
sg148
I14
sg149
I0
sg150
I9
sg151
I0
sg152
I1
sg153
I0
sg154
I19
sg155
I0
sg156
I15
sg157
I15
sg158
I0
sg159
I60
sg160
I2
sg161
I0
sg162
I1
sg163
I55
sg164
I7
sg165
I0
sg166
I0
sg167
I29
sg168
I0
sg169
I0
sg170
I50
sg171
I0
sg172
I55
sg173
I1
sg174
I4
sg175
I23
sg176
I0
sg177
I24
sg178
I0
sg179
I26
sg180
I0
sg181
I0
ssS'Ch 47'
p313
(dp314
g7
I1
sg8
I0
sg9
I0
sg10
I5
sg11
I1
sg12
I0
sg13
I5
sg14
I0
sg15
I0
sg16
I1
sg17
I3
sg18
I1
sg19
I0
sg20
I0
ssS'Ch 34'
p315
(dp316
g7
I1
sg8
I0
sg9
I0
sg10
I5
sg11
I1
sg12
I0
sg13
I5
sg14
I0
sg15
I0
sg16
I1
sg17
I3
sg18
I1
sg19
I0
sg20
I0
sssS'TIGER 0'
p317
(dp318
S'Ch 51'
p319
(dp320
g7
I1
sg8
I0
sg9
I0
sg10
I5
sg11
I1
sg12
I0
sg13
I5
sg14
I0
sg15
I0
sg16
I1
sg17
I3
sg18
I1
sg19
I0
sg20
I0
ssS'Ch 42'
p321
(dp322
g7
I1
sg8
I0
sg9
I0
sg10
I5
sg11
I1
sg12
I0
sg13
I5
sg14
I0
sg15
I0
sg16
I1
sg17
I3
sg18
I1
sg19
I0
sg20
I0
ssS'Ch 53'
p323
(dp324
g7
I1
sg8
I0
sg9
I0
sg10
I5
sg11
I1
sg12
I0
sg13
I5
sg14
I0
sg15
I0
sg16
I1
sg17
I3
sg18
I1
sg19
I0
sg20
I0
ssS'Ch 52'
p325
(dp326
g7
I1
sg8
I0
sg9
I0
sg10
I5
sg11
I1
sg12
I0
sg13
I5
sg14
I0
sg15
I0
sg16
I1
sg17
I3
sg18
I1
sg19
I0
sg20
I0
ssS'Ch 55'
p327
(dp328
g7
I1
sg8
I0
sg9
I0
sg10
I5
sg11
I1
sg12
I0
sg13
I5
sg14
I0
sg15
I0
sg16
I1
sg17
I3
sg18
I1
sg19
I0
sg20
I0
ssS'Ch 54'
p329
(dp330
g7
I1
sg8
I0
sg9
I0
sg10
I5
sg11
I1
sg12
I0
sg13
I5
sg14
I0
sg15
I0
sg16
I1
sg17
I3
sg18
I1
sg19
I0
sg20
I0
ssS'Ch 57'
p331
(dp332
g7
I1
sg8
I0
sg9
I0
sg10
I5
sg11
I1
sg12
I0
sg13
I5
sg14
I0
sg15
I0
sg16
I1
sg17
I3
sg18
I1
sg19
I0
sg20
I0
ssS'Ch 43'
p333
(dp334
g7
I1
sg8
I0
sg9
I0
sg10
I5
sg11
I1
sg12
I0
sg13
I5
sg14
I0
sg15
I0
sg16
I1
sg17
I3
sg18
I1
sg19
I0
sg20
I0
ssS'Ch 59'
p335
(dp336
g7
I1
sg8
I0
sg9
I0
sg10
I5
sg11
I1
sg12
I0
sg13
I5
sg14
I0
sg15
I0
sg16
I1
sg17
I3
sg18
I1
sg19
I0
sg20
I0
ssS'Ch 58'
p337
(dp338
g7
I1
sg8
I0
sg9
I0
sg10
I5
sg11
I1
sg12
I0
sg13
I5
sg14
I0
sg15
I0
sg16
I1
sg17
I3
sg18
I1
sg19
I0
sg20
I0
ssS'Ch 56'
p339
(dp340
g7
I1
sg8
I0
sg9
I0
sg10
I5
sg11
I1
sg12
I0
sg13
I5
sg14
I0
sg15
I0
sg16
I1
sg17
I3
sg18
I1
sg19
I0
sg20
I0
ssS'Ch 40'
p341
(dp342
g7
I1
sg8
I0
sg9
I0
sg10
I5
sg11
I1
sg12
I0
sg13
I5
sg14
I0
sg15
I0
sg16
I1
sg17
I3
sg18
I1
sg19
I0
sg20
I0
ssS'Ch 33'
p343
(dp344
g7
I1
sg8
I0
sg9
I0
sg10
I5
sg11
I1
sg12
I0
sg13
I5
sg14
I0
sg15
I0
sg16
I1
sg17
I3
sg18
I1
sg19
I0
sg20
I0
ssS'Ch 39'
p345
(dp346
g7
I1
sg8
I0
sg9
I0
sg10
I5
sg11
I1
sg12
I0
sg13
I5
sg14
I0
sg15
I0
sg16
I1
sg17
I3
sg18
I1
sg19
I0
sg20
I0
ssS'Ch 38'
p347
(dp348
g7
I1
sg8
I0
sg9
I0
sg10
I5
sg11
I1
sg12
I0
sg13
I5
sg14
I0
sg15
I0
sg16
I1
sg17
I3
sg18
I1
sg19
I0
sg20
I0
ssS'Ch 19'
p349
(dp350
g7
I1
sg8
I0
sg9
I0
sg10
I5
sg11
I1
sg12
I0
sg13
I5
sg14
I0
sg15
I0
sg16
I1
sg17
I3
sg18
I1
sg19
I0
sg20
I0
ssS'Ch 18'
p351
(dp352
g7
I1
sg8
I0
sg9
I0
sg10
I5
sg11
I1
sg12
I0
sg13
I5
sg14
I0
sg15
I0
sg16
I1
sg17
I3
sg18
I1
sg19
I0
sg20
I0
ssS'Ch 32'
p353
(dp354
g7
I1
sg8
I0
sg9
I0
sg10
I5
sg11
I1
sg12
I0
sg13
I5
sg14
I0
sg15
I0
sg16
I1
sg17
I3
sg18
I1
sg19
I0
sg20
I0
ssS'Ch 15'
p355
(dp356
g7
I1
sg8
I0
sg9
I0
sg10
I5
sg11
I1
sg12
I0
sg13
I5
sg14
I0
sg15
I0
sg16
I1
sg17
I3
sg18
I1
sg19
I0
sg20
I0
ssS'Ch 14'
p357
(dp358
g7
I1
sg8
I0
sg9
I0
sg10
I5
sg11
I1
sg12
I0
sg13
I5
sg14
I0
sg15
I0
sg16
I1
sg17
I3
sg18
I1
sg19
I0
sg20
I0
ssS'Ch 17'
p359
(dp360
g7
I1
sg8
I0
sg9
I0
sg10
I5
sg11
I1
sg12
I0
sg13
I5
sg14
I0
sg15
I0
sg16
I1
sg17
I3
sg18
I1
sg19
I0
sg20
I0
ssS'Ch 16'
p361
(dp362
g7
I1
sg8
I0
sg9
I0
sg10
I5
sg11
I1
sg12
I0
sg13
I5
sg14
I0
sg15
I0
sg16
I1
sg17
I3
sg18
I1
sg19
I0
sg20
I0
ssS'Ch 11'
p363
(dp364
g7
I1
sg8
I0
sg9
I0
sg10
I5
sg11
I1
sg12
I0
sg13
I5
sg14
I0
sg15
I0
sg16
I1
sg17
I3
sg18
I1
sg19
I0
sg20
I0
ssS'Ch 10'
p365
(dp366
g7
I1
sg8
I0
sg9
I0
sg10
I5
sg11
I1
sg12
I0
sg13
I5
sg14
I0
sg15
I0
sg16
I1
sg17
I3
sg18
I1
sg19
I0
sg20
I0
ssS'Ch 13'
p367
(dp368
g7
I1
sg8
I0
sg9
I0
sg10
I5
sg11
I1
sg12
I0
sg13
I5
sg14
I0
sg15
I0
sg16
I1
sg17
I3
sg18
I1
sg19
I0
sg20
I0
ssS'Ch 12'
p369
(dp370
g7
I1
sg8
I0
sg9
I0
sg10
I5
sg11
I1
sg12
I0
sg13
I5
sg14
I0
sg15
I0
sg16
I1
sg17
I3
sg18
I1
sg19
I0
sg20
I0
ssS'Ch 30'
p371
(dp372
g7
I1
sg8
I0
sg9
I0
sg10
I5
sg11
I1
sg12
I0
sg13
I5
sg14
I0
sg15
I0
sg16
I1
sg17
I3
sg18
I1
sg19
I0
sg20
I0
ssS'Ch 44'
p373
(dp374
g7
I1
sg8
I0
sg9
I0
sg10
I5
sg11
I1
sg12
I0
sg13
I5
sg14
I0
sg15
I0
sg16
I1
sg17
I3
sg18
I1
sg19
I0
sg20
I0
ssS'Ch 35'
p375
(dp376
g7
I1
sg8
I0
sg9
I0
sg10
I5
sg11
I1
sg12
I0
sg13
I5
sg14
I0
sg15
I0
sg16
I1
sg17
I3
sg18
I1
sg19
I0
sg20
I0
ssS'Ch 62'
p377
(dp378
g7
I1
sg8
I0
sg9
I0
sg10
I5
sg11
I1
sg12
I0
sg13
I5
sg14
I0
sg15
I0
sg16
I1
sg17
I3
sg18
I1
sg19
I0
sg20
I0
ssS'Ch 37'
p379
(dp380
g7
I1
sg8
I0
sg9
I0
sg10
I5
sg11
I1
sg12
I0
sg13
I5
sg14
I0
sg15
I0
sg16
I1
sg17
I3
sg18
I1
sg19
I0
sg20
I0
ssS'Ch 45'
p381
(dp382
g7
I1
sg8
I0
sg9
I0
sg10
I5
sg11
I1
sg12
I0
sg13
I5
sg14
I0
sg15
I0
sg16
I1
sg17
I3
sg18
I1
sg19
I0
sg20
I0
ssS'Ch 31'
p383
(dp384
g7
I1
sg8
I0
sg9
I0
sg10
I5
sg11
I1
sg12
I0
sg13
I5
sg14
I0
sg15
I0
sg16
I1
sg17
I3
sg18
I1
sg19
I0
sg20
I0
ssS'Ch 36'
p385
(dp386
g7
I1
sg8
I0
sg9
I0
sg10
I5
sg11
I1
sg12
I0
sg13
I5
sg14
I0
sg15
I0
sg16
I1
sg17
I3
sg18
I1
sg19
I0
sg20
I0
ssS'Ch 41'
p387
(dp388
g7
I1
sg8
I0
sg9
I0
sg10
I5
sg11
I1
sg12
I0
sg13
I5
sg14
I0
sg15
I0
sg16
I1
sg17
I3
sg18
I1
sg19
I0
sg20
I0
ssS'Ch 9'
p389
(dp390
g7
I1
sg8
I0
sg9
I0
sg10
I5
sg11
I1
sg12
I0
sg13
I5
sg14
I0
sg15
I0
sg16
I1
sg17
I3
sg18
I1
sg19
I0
sg20
I0
ssS'Ch 8'
p391
(dp392
g7
I1
sg8
I0
sg9
I0
sg10
I5
sg11
I1
sg12
I0
sg13
I5
sg14
I0
sg15
I0
sg16
I1
sg17
I3
sg18
I1
sg19
I0
sg20
I0
ssS'Ch 5'
p393
(dp394
g7
I1
sg8
I0
sg9
I0
sg10
I5
sg11
I1
sg12
I0
sg13
I5
sg14
I0
sg15
I0
sg16
I1
sg17
I3
sg18
I1
sg19
I0
sg20
I0
ssS'Ch 4'
p395
(dp396
g7
I1
sg8
I0
sg9
I0
sg10
I5
sg11
I1
sg12
I0
sg13
I5
sg14
I0
sg15
I0
sg16
I1
sg17
I3
sg18
I1
sg19
I0
sg20
I0
ssS'Ch 7'
p397
(dp398
g7
I1
sg8
I0
sg9
I0
sg10
I5
sg11
I1
sg12
I0
sg13
I5
sg14
I0
sg15
I0
sg16
I1
sg17
I3
sg18
I1
sg19
I0
sg20
I0
ssS'Ch 6'
p399
(dp400
g7
I1
sg8
I0
sg9
I0
sg10
I5
sg11
I1
sg12
I0
sg13
I5
sg14
I0
sg15
I0
sg16
I1
sg17
I3
sg18
I1
sg19
I0
sg20
I0
ssS'Ch 1'
p401
(dp402
g7
I1
sg8
I0
sg9
I0
sg10
I5
sg11
I1
sg12
I0
sg13
I5
sg14
I0
sg15
I0
sg16
I1
sg17
I3
sg18
I1
sg19
I0
sg20
I0
ssS'Ch 0'
p403
(dp404
g7
I1
sg8
I0
sg9
I0
sg10
I5
sg11
I1
sg12
I0
sg13
I5
sg14
I0
sg15
I0
sg16
I1
sg17
I3
sg18
I1
sg19
I0
sg20
I0
ssS'Ch 3'
p405
(dp406
g7
I1
sg8
I0
sg9
I0
sg10
I5
sg11
I1
sg12
I0
sg13
I5
sg14
I0
sg15
I0
sg16
I1
sg17
I3
sg18
I1
sg19
I0
sg20
I0
ssS'Ch 2'
p407
(dp408
g7
I1
sg8
I0
sg9
I0
sg10
I5
sg11
I1
sg12
I0
sg13
I5
sg14
I0
sg15
I0
sg16
I1
sg17
I3
sg18
I1
sg19
I0
sg20
I0
ssS'Ch 24'
p409
(dp410
g7
I1
sg8
I0
sg9
I0
sg10
I5
sg11
I1
sg12
I0
sg13
I5
sg14
I0
sg15
I0
sg16
I1
sg17
I3
sg18
I1
sg19
I0
sg20
I0
ssS'Ch 25'
p411
(dp412
g7
I1
sg8
I0
sg9
I0
sg10
I5
sg11
I1
sg12
I0
sg13
I5
sg14
I0
sg15
I0
sg16
I1
sg17
I3
sg18
I1
sg19
I0
sg20
I0
ssS'Ch 26'
p413
(dp414
g7
I1
sg8
I0
sg9
I0
sg10
I5
sg11
I1
sg12
I0
sg13
I5
sg14
I0
sg15
I0
sg16
I1
sg17
I3
sg18
I1
sg19
I0
sg20
I0
ssS'Ch 27'
p415
(dp416
g7
I1
sg8
I0
sg9
I0
sg10
I5
sg11
I1
sg12
I0
sg13
I5
sg14
I0
sg15
I0
sg16
I1
sg17
I3
sg18
I1
sg19
I0
sg20
I0
ssS'Ch 20'
p417
(dp418
g7
I1
sg8
I0
sg9
I0
sg10
I5
sg11
I1
sg12
I0
sg13
I5
sg14
I0
sg15
I0
sg16
I1
sg17
I1
sg18
I1
sg19
I0
sg20
I0
ssS'Ch 21'
p419
(dp420
g7
I1
sg8
I0
sg9
I0
sg10
I5
sg11
I1
sg12
I0
sg13
I5
sg14
I0
sg15
I0
sg16
I1
sg17
I3
sg18
I1
sg19
I0
sg20
I0
ssS'Ch 22'
p421
(dp422
g7
I1
sg8
I0
sg9
I0
sg10
I5
sg11
I1
sg12
I0
sg13
I5
sg14
I0
sg15
I0
sg16
I1
sg17
I3
sg18
I1
sg19
I0
sg20
I0
ssS'Ch 23'
p423
(dp424
g7
I1
sg8
I0
sg9
I0
sg10
I5
sg11
I1
sg12
I0
sg13
I5
sg14
I0
sg15
I0
sg16
I1
sg17
I3
sg18
I1
sg19
I0
sg20
I0
ssS'Ch 60'
p425
(dp426
g7
I1
sg8
I0
sg9
I0
sg10
I5
sg11
I1
sg12
I0
sg13
I5
sg14
I0
sg15
I0
sg16
I1
sg17
I3
sg18
I1
sg19
I0
sg20
I0
ssS'Ch 61'
p427
(dp428
g7
I1
sg8
I0
sg9
I0
sg10
I5
sg11
I1
sg12
I0
sg13
I5
sg14
I0
sg15
I0
sg16
I1
sg17
I3
sg18
I1
sg19
I0
sg20
I0
ssS'Ch 48'
p429
(dp430
g7
I1
sg8
I0
sg9
I0
sg10
I5
sg11
I1
sg12
I0
sg13
I5
sg14
I0
sg15
I0
sg16
I1
sg17
I3
sg18
I1
sg19
I0
sg20
I0
ssS'Ch 49'
p431
(dp432
g7
I1
sg8
I0
sg9
I0
sg10
I5
sg11
I1
sg12
I0
sg13
I5
sg14
I0
sg15
I0
sg16
I1
sg17
I3
sg18
I1
sg19
I0
sg20
I0
ssS'Ch 28'
p433
(dp434
g7
I1
sg8
I0
sg9
I0
sg10
I5
sg11
I1
sg12
I0
sg13
I5
sg14
I0
sg15
I0
sg16
I1
sg17
I3
sg18
I1
sg19
I0
sg20
I0
ssS'Ch 29'
p435
(dp436
g7
I1
sg8
I0
sg9
I0
sg10
I5
sg11
I1
sg12
I0
sg13
I5
sg14
I0
sg15
I0
sg16
I1
sg17
I3
sg18
I1
sg19
I0
sg20
I0
ssS'Ch 46'
p437
(dp438
g7
I1
sg8
I0
sg9
I0
sg10
I5
sg11
I1
sg12
I0
sg13
I5
sg14
I0
sg15
I0
sg16
I1
sg17
I3
sg18
I1
sg19
I0
sg20
I0
ssS'Ch 50'
p439
(dp440
g7
I1
sg8
I0
sg9
I0
sg10
I5
sg11
I1
sg12
I0
sg13
I5
sg14
I0
sg15
I0
sg16
I1
sg17
I3
sg18
I1
sg19
I0
sg20
I0
ssS'Ch 63'
p441
(dp442
g7
I1
sg8
I0
sg9
I0
sg10
I5
sg11
I1
sg12
I0
sg13
I5
sg14
I0
sg15
I0
sg16
I1
sg17
I3
sg18
I1
sg19
I0
sg20
I0
ssg143
(dp443
g145
I39
sg146
I2
sg147
I0
sg148
I14
sg149
I0
sg150
I9
sg151
I0
sg152
I1
sg153
I0
sg154
I19
sg155
I0
sg156
I15
sg157
I15
sg158
I0
sg159
I60
sg160
I2
sg161
I0
sg162
I1
sg163
I55
sg164
I7
sg165
I0
sg166
I0
sg167
I29
sg168
I0
sg169
I0
sg170
I50
sg171
I0
sg172
I55
sg173
I1
sg174
I4
sg175
I23
sg176
I0
sg177
I24
sg178
I0
sg179
I26
sg180
I0
sg181
I0
ssS'Ch 47'
p444
(dp445
g7
I1
sg8
I0
sg9
I0
sg10
I5
sg11
I1
sg12
I0
sg13
I5
sg14
I0
sg15
I0
sg16
I1
sg17
I3
sg18
I1
sg19
I0
sg20
I0
ssS'Ch 34'
p446
(dp447
g7
I1
sg8
I0
sg9
I0
sg10
I5
sg11
I1
sg12
I0
sg13
I5
sg14
I0
sg15
I0
sg16
I1
sg17
I3
sg18
I1
sg19
I0
sg20
I0
sssS'TIGER 1'
p448
(dp449
S'Ch 51'
p450
(dp451
g7
I1
sg8
I0
sg9
I0
sg10
I5
sg11
I1
sg12
I0
sg13
I5
sg14
I0
sg15
I0
sg16
I1
sg17
I3
sg18
I1
sg19
I0
sg20
I0
ssS'Ch 42'
p452
(dp453
g7
I1
sg8
I0
sg9
I0
sg10
I5
sg11
I1
sg12
I0
sg13
I5
sg14
I0
sg15
I0
sg16
I1
sg17
I3
sg18
I1
sg19
I0
sg20
I0
ssS'Ch 53'
p454
(dp455
g7
I1
sg8
I0
sg9
I0
sg10
I5
sg11
I1
sg12
I0
sg13
I5
sg14
I0
sg15
I0
sg16
I1
sg17
I3
sg18
I1
sg19
I0
sg20
I0
ssS'Ch 52'
p456
(dp457
g7
I1
sg8
I0
sg9
I0
sg10
I5
sg11
I1
sg12
I0
sg13
I5
sg14
I0
sg15
I0
sg16
I1
sg17
I3
sg18
I1
sg19
I0
sg20
I0
ssS'Ch 55'
p458
(dp459
g7
I1
sg8
I0
sg9
I0
sg10
I5
sg11
I1
sg12
I0
sg13
I5
sg14
I0
sg15
I0
sg16
I1
sg17
I3
sg18
I1
sg19
I0
sg20
I0
ssS'Ch 54'
p460
(dp461
g7
I1
sg8
I0
sg9
I0
sg10
I5
sg11
I1
sg12
I0
sg13
I5
sg14
I0
sg15
I0
sg16
I1
sg17
I3
sg18
I1
sg19
I0
sg20
I0
ssS'Ch 57'
p462
(dp463
g7
I1
sg8
I0
sg9
I0
sg10
I5
sg11
I1
sg12
I0
sg13
I5
sg14
I0
sg15
I0
sg16
I1
sg17
I3
sg18
I1
sg19
I0
sg20
I0
ssS'Ch 43'
p464
(dp465
g7
I1
sg8
I0
sg9
I0
sg10
I5
sg11
I1
sg12
I0
sg13
I5
sg14
I0
sg15
I0
sg16
I1
sg17
I3
sg18
I1
sg19
I0
sg20
I0
ssS'Ch 59'
p466
(dp467
g7
I1
sg8
I0
sg9
I0
sg10
I5
sg11
I1
sg12
I0
sg13
I5
sg14
I0
sg15
I0
sg16
I1
sg17
I3
sg18
I1
sg19
I0
sg20
I0
ssS'Ch 58'
p468
(dp469
g7
I1
sg8
I0
sg9
I0
sg10
I5
sg11
I1
sg12
I0
sg13
I5
sg14
I0
sg15
I0
sg16
I1
sg17
I3
sg18
I1
sg19
I0
sg20
I0
ssS'Ch 56'
p470
(dp471
g7
I1
sg8
I0
sg9
I0
sg10
I5
sg11
I1
sg12
I0
sg13
I5
sg14
I0
sg15
I0
sg16
I1
sg17
I3
sg18
I1
sg19
I0
sg20
I0
ssS'Ch 40'
p472
(dp473
g7
I1
sg8
I0
sg9
I0
sg10
I5
sg11
I1
sg12
I0
sg13
I5
sg14
I0
sg15
I0
sg16
I1
sg17
I3
sg18
I1
sg19
I0
sg20
I0
ssS'Ch 33'
p474
(dp475
g7
I1
sg8
I0
sg9
I0
sg10
I5
sg11
I1
sg12
I0
sg13
I5
sg14
I0
sg15
I0
sg16
I1
sg17
I3
sg18
I1
sg19
I0
sg20
I0
ssS'Ch 39'
p476
(dp477
g7
I1
sg8
I0
sg9
I0
sg10
I5
sg11
I1
sg12
I0
sg13
I5
sg14
I0
sg15
I0
sg16
I1
sg17
I3
sg18
I1
sg19
I0
sg20
I0
ssS'Ch 38'
p478
(dp479
g7
I1
sg8
I0
sg9
I0
sg10
I5
sg11
I1
sg12
I0
sg13
I5
sg14
I0
sg15
I0
sg16
I1
sg17
I3
sg18
I1
sg19
I0
sg20
I0
ssS'Ch 19'
p480
(dp481
g7
I1
sg8
I0
sg9
I0
sg10
I5
sg11
I1
sg12
I0
sg13
I5
sg14
I0
sg15
I0
sg16
I1
sg17
I3
sg18
I1
sg19
I0
sg20
I0
ssS'Ch 18'
p482
(dp483
g7
I1
sg8
I0
sg9
I0
sg10
I5
sg11
I1
sg12
I0
sg13
I5
sg14
I0
sg15
I0
sg16
I1
sg17
I3
sg18
I1
sg19
I0
sg20
I0
ssS'Ch 32'
p484
(dp485
g7
I1
sg8
I0
sg9
I0
sg10
I5
sg11
I1
sg12
I0
sg13
I5
sg14
I0
sg15
I0
sg16
I1
sg17
I3
sg18
I1
sg19
I0
sg20
I0
ssS'Ch 15'
p486
(dp487
g7
I1
sg8
I0
sg9
I0
sg10
I5
sg11
I1
sg12
I0
sg13
I5
sg14
I0
sg15
I0
sg16
I1
sg17
I3
sg18
I1
sg19
I0
sg20
I0
ssS'Ch 14'
p488
(dp489
g7
I1
sg8
I0
sg9
I0
sg10
I5
sg11
I1
sg12
I0
sg13
I5
sg14
I0
sg15
I0
sg16
I1
sg17
I3
sg18
I1
sg19
I0
sg20
I0
ssS'Ch 17'
p490
(dp491
g7
I1
sg8
I0
sg9
I0
sg10
I5
sg11
I1
sg12
I0
sg13
I5
sg14
I0
sg15
I0
sg16
I1
sg17
I3
sg18
I1
sg19
I0
sg20
I0
ssS'Ch 16'
p492
(dp493
g7
I1
sg8
I0
sg9
I0
sg10
I5
sg11
I1
sg12
I0
sg13
I5
sg14
I0
sg15
I0
sg16
I1
sg17
I3
sg18
I1
sg19
I0
sg20
I0
ssS'Ch 11'
p494
(dp495
g7
I1
sg8
I0
sg9
I0
sg10
I5
sg11
I1
sg12
I0
sg13
I5
sg14
I0
sg15
I0
sg16
I1
sg17
I3
sg18
I1
sg19
I0
sg20
I0
ssS'Ch 10'
p496
(dp497
g7
I1
sg8
I0
sg9
I0
sg10
I5
sg11
I1
sg12
I0
sg13
I5
sg14
I0
sg15
I0
sg16
I1
sg17
I3
sg18
I1
sg19
I0
sg20
I0
ssS'Ch 13'
p498
(dp499
g7
I1
sg8
I0
sg9
I0
sg10
I5
sg11
I1
sg12
I0
sg13
I5
sg14
I0
sg15
I0
sg16
I1
sg17
I3
sg18
I1
sg19
I0
sg20
I0
ssS'Ch 12'
p500
(dp501
g7
I1
sg8
I0
sg9
I0
sg10
I5
sg11
I1
sg12
I0
sg13
I5
sg14
I0
sg15
I0
sg16
I1
sg17
I3
sg18
I1
sg19
I0
sg20
I0
ssS'Ch 30'
p502
(dp503
g7
I1
sg8
I0
sg9
I0
sg10
I5
sg11
I1
sg12
I0
sg13
I5
sg14
I0
sg15
I0
sg16
I1
sg17
I3
sg18
I1
sg19
I0
sg20
I0
ssS'Ch 44'
p504
(dp505
g7
I1
sg8
I0
sg9
I0
sg10
I5
sg11
I1
sg12
I0
sg13
I5
sg14
I0
sg15
I0
sg16
I1
sg17
I3
sg18
I1
sg19
I0
sg20
I0
ssS'Ch 35'
p506
(dp507
g7
I1
sg8
I0
sg9
I0
sg10
I5
sg11
I1
sg12
I0
sg13
I5
sg14
I0
sg15
I0
sg16
I1
sg17
I3
sg18
I1
sg19
I0
sg20
I0
ssS'Ch 62'
p508
(dp509
g7
I1
sg8
I0
sg9
I0
sg10
I5
sg11
I1
sg12
I0
sg13
I5
sg14
I0
sg15
I0
sg16
I1
sg17
I3
sg18
I1
sg19
I0
sg20
I0
ssS'Ch 37'
p510
(dp511
g7
I1
sg8
I0
sg9
I0
sg10
I5
sg11
I1
sg12
I0
sg13
I5
sg14
I0
sg15
I0
sg16
I1
sg17
I3
sg18
I1
sg19
I0
sg20
I0
ssS'Ch 45'
p512
(dp513
g7
I1
sg8
I0
sg9
I0
sg10
I5
sg11
I1
sg12
I0
sg13
I5
sg14
I0
sg15
I0
sg16
I1
sg17
I3
sg18
I1
sg19
I0
sg20
I0
ssS'Ch 31'
p514
(dp515
g7
I1
sg8
I0
sg9
I0
sg10
I5
sg11
I1
sg12
I0
sg13
I5
sg14
I0
sg15
I0
sg16
I1
sg17
I3
sg18
I1
sg19
I0
sg20
I0
ssS'Ch 36'
p516
(dp517
g7
I1
sg8
I0
sg9
I0
sg10
I5
sg11
I1
sg12
I0
sg13
I5
sg14
I0
sg15
I0
sg16
I1
sg17
I3
sg18
I1
sg19
I0
sg20
I0
ssS'Ch 41'
p518
(dp519
g7
I1
sg8
I0
sg9
I0
sg10
I5
sg11
I1
sg12
I0
sg13
I5
sg14
I0
sg15
I0
sg16
I1
sg17
I3
sg18
I1
sg19
I0
sg20
I0
ssS'Ch 9'
p520
(dp521
g7
I1
sg8
I0
sg9
I0
sg10
I5
sg11
I1
sg12
I0
sg13
I5
sg14
I0
sg15
I0
sg16
I1
sg17
I3
sg18
I1
sg19
I0
sg20
I0
ssS'Ch 8'
p522
(dp523
g7
I1
sg8
I0
sg9
I0
sg10
I5
sg11
I1
sg12
I0
sg13
I5
sg14
I0
sg15
I0
sg16
I1
sg17
I3
sg18
I1
sg19
I0
sg20
I0
ssS'Ch 5'
p524
(dp525
g7
I1
sg8
I0
sg9
I0
sg10
I5
sg11
I1
sg12
I0
sg13
I5
sg14
I0
sg15
I0
sg16
I1
sg17
I3
sg18
I1
sg19
I0
sg20
I0
ssS'Ch 4'
p526
(dp527
g7
I1
sg8
I0
sg9
I0
sg10
I5
sg11
I1
sg12
I0
sg13
I5
sg14
I0
sg15
I0
sg16
I1
sg17
I3
sg18
I1
sg19
I0
sg20
I0
ssS'Ch 7'
p528
(dp529
g7
I1
sg8
I0
sg9
I0
sg10
I5
sg11
I1
sg12
I0
sg13
I5
sg14
I0
sg15
I0
sg16
I1
sg17
I3
sg18
I1
sg19
I0
sg20
I0
ssS'Ch 6'
p530
(dp531
g7
I1
sg8
I0
sg9
I0
sg10
I5
sg11
I1
sg12
I0
sg13
I5
sg14
I0
sg15
I0
sg16
I1
sg17
I3
sg18
I1
sg19
I0
sg20
I0
ssS'Ch 1'
p532
(dp533
g7
I1
sg8
I0
sg9
I0
sg10
I5
sg11
I1
sg12
I0
sg13
I5
sg14
I0
sg15
I0
sg16
I1
sg17
I3
sg18
I1
sg19
I0
sg20
I0
ssS'Ch 0'
p534
(dp535
g7
I1
sg8
I0
sg9
I0
sg10
I5
sg11
I1
sg12
I0
sg13
I5
sg14
I0
sg15
I0
sg16
I1
sg17
I3
sg18
I1
sg19
I0
sg20
I0
ssS'Ch 3'
p536
(dp537
g7
I1
sg8
I0
sg9
I0
sg10
I5
sg11
I1
sg12
I0
sg13
I5
sg14
I0
sg15
I0
sg16
I1
sg17
I3
sg18
I1
sg19
I0
sg20
I0
ssS'Ch 2'
p538
(dp539
g7
I1
sg8
I0
sg9
I0
sg10
I5
sg11
I1
sg12
I0
sg13
I5
sg14
I0
sg15
I0
sg16
I1
sg17
I3
sg18
I1
sg19
I0
sg20
I0
ssS'Ch 24'
p540
(dp541
g7
I1
sg8
I0
sg9
I0
sg10
I5
sg11
I1
sg12
I0
sg13
I5
sg14
I0
sg15
I0
sg16
I1
sg17
I3
sg18
I1
sg19
I0
sg20
I0
ssS'Ch 25'
p542
(dp543
g7
I1
sg8
I0
sg9
I0
sg10
I5
sg11
I1
sg12
I0
sg13
I5
sg14
I0
sg15
I0
sg16
I1
sg17
I3
sg18
I1
sg19
I0
sg20
I0
ssS'Ch 26'
p544
(dp545
g7
I1
sg8
I0
sg9
I0
sg10
I5
sg11
I1
sg12
I0
sg13
I5
sg14
I0
sg15
I0
sg16
I1
sg17
I3
sg18
I1
sg19
I0
sg20
I0
ssS'Ch 27'
p546
(dp547
g7
I1
sg8
I0
sg9
I0
sg10
I5
sg11
I1
sg12
I0
sg13
I5
sg14
I0
sg15
I0
sg16
I1
sg17
I3
sg18
I1
sg19
I0
sg20
I0
ssS'Ch 20'
p548
(dp549
g7
I1
sg8
I0
sg9
I0
sg10
I5
sg11
I1
sg12
I0
sg13
I5
sg14
I0
sg15
I0
sg16
I1
sg17
I1
sg18
I1
sg19
I0
sg20
I0
ssS'Ch 21'
p550
(dp551
g7
I1
sg8
I0
sg9
I0
sg10
I5
sg11
I1
sg12
I0
sg13
I5
sg14
I0
sg15
I0
sg16
I1
sg17
I3
sg18
I1
sg19
I0
sg20
I0
ssS'Ch 22'
p552
(dp553
g7
I1
sg8
I0
sg9
I0
sg10
I5
sg11
I1
sg12
I0
sg13
I5
sg14
I0
sg15
I0
sg16
I1
sg17
I3
sg18
I1
sg19
I0
sg20
I0
ssS'Ch 23'
p554
(dp555
g7
I1
sg8
I0
sg9
I0
sg10
I5
sg11
I1
sg12
I0
sg13
I5
sg14
I0
sg15
I0
sg16
I1
sg17
I3
sg18
I1
sg19
I0
sg20
I0
ssS'Ch 60'
p556
(dp557
g7
I1
sg8
I0
sg9
I0
sg10
I5
sg11
I1
sg12
I0
sg13
I5
sg14
I0
sg15
I0
sg16
I1
sg17
I3
sg18
I1
sg19
I0
sg20
I0
ssS'Ch 61'
p558
(dp559
g7
I1
sg8
I0
sg9
I0
sg10
I5
sg11
I1
sg12
I0
sg13
I5
sg14
I0
sg15
I0
sg16
I1
sg17
I3
sg18
I1
sg19
I0
sg20
I0
ssS'Ch 48'
p560
(dp561
g7
I1
sg8
I0
sg9
I0
sg10
I5
sg11
I1
sg12
I0
sg13
I5
sg14
I0
sg15
I0
sg16
I1
sg17
I3
sg18
I1
sg19
I0
sg20
I0
ssS'Ch 49'
p562
(dp563
g7
I1
sg8
I0
sg9
I0
sg10
I5
sg11
I1
sg12
I0
sg13
I5
sg14
I0
sg15
I0
sg16
I1
sg17
I3
sg18
I1
sg19
I0
sg20
I0
ssS'Ch 28'
p564
(dp565
g7
I1
sg8
I0
sg9
I0
sg10
I5
sg11
I1
sg12
I0
sg13
I5
sg14
I0
sg15
I0
sg16
I1
sg17
I3
sg18
I1
sg19
I0
sg20
I0
ssS'Ch 29'
p566
(dp567
g7
I1
sg8
I0
sg9
I0
sg10
I5
sg11
I1
sg12
I0
sg13
I5
sg14
I0
sg15
I0
sg16
I1
sg17
I3
sg18
I1
sg19
I0
sg20
I0
ssS'Ch 46'
p568
(dp569
g7
I1
sg8
I0
sg9
I0
sg10
I5
sg11
I1
sg12
I0
sg13
I5
sg14
I0
sg15
I0
sg16
I1
sg17
I3
sg18
I1
sg19
I0
sg20
I0
ssS'Ch 50'
p570
(dp571
g7
I1
sg8
I0
sg9
I0
sg10
I5
sg11
I1
sg12
I0
sg13
I5
sg14
I0
sg15
I0
sg16
I1
sg17
I3
sg18
I1
sg19
I0
sg20
I0
ssS'Ch 63'
p572
(dp573
g7
I1
sg8
I0
sg9
I0
sg10
I5
sg11
I1
sg12
I0
sg13
I5
sg14
I0
sg15
I0
sg16
I1
sg17
I3
sg18
I1
sg19
I0
sg20
I0
ssg143
(dp574
g145
I39
sg146
I2
sg147
I0
sg148
I14
sg149
I0
sg150
I9
sg151
I0
sg152
I1
sg153
I0
sg154
I19
sg155
I0
sg156
I15
sg157
I15
sg158
I0
sg159
I60
sg160
I2
sg161
I0
sg162
I1
sg163
I55
sg164
I7
sg165
I0
sg166
I0
sg167
I29
sg168
I0
sg169
I0
sg170
I50
sg171
I0
sg172
I55
sg173
I1
sg174
I4
sg175
I23
sg176
I0
sg177
I24
sg178
I0
sg179
I26
sg180
I0
sg181
I0
ssS'Ch 47'
p575
(dp576
g7
I1
sg8
I0
sg9
I0
sg10
I5
sg11
I1
sg12
I0
sg13
I5
sg14
I0
sg15
I0
sg16
I1
sg17
I3
sg18
I1
sg19
I0
sg20
I0
ssS'Ch 34'
p577
(dp578
g7
I1
sg8
I0
sg9
I0
sg10
I5
sg11
I1
sg12
I0
sg13
I5
sg14
I0
sg15
I0
sg16
I1
sg17
I3
sg18
I1
sg19
I0
sg20
I0
sssS'TIGER 6'
p579
(dp580
S'Ch 51'
p581
(dp582
g7
I1
sg8
I0
sg9
I0
sg10
I5
sg11
I1
sg12
I0
sg13
I5
sg14
I0
sg15
I0
sg16
I1
sg17
I3
sg18
I1
sg19
I0
sg20
I0
ssS'Ch 42'
p583
(dp584
g7
I1
sg8
I0
sg9
I0
sg10
I5
sg11
I1
sg12
I0
sg13
I5
sg14
I0
sg15
I0
sg16
I1
sg17
I3
sg18
I1
sg19
I0
sg20
I0
ssS'Ch 53'
p585
(dp586
g7
I1
sg8
I0
sg9
I0
sg10
I5
sg11
I1
sg12
I0
sg13
I5
sg14
I0
sg15
I0
sg16
I1
sg17
I3
sg18
I1
sg19
I0
sg20
I0
ssS'Ch 52'
p587
(dp588
g7
I1
sg8
I0
sg9
I0
sg10
I5
sg11
I1
sg12
I0
sg13
I5
sg14
I0
sg15
I0
sg16
I1
sg17
I3
sg18
I1
sg19
I0
sg20
I0
ssS'Ch 55'
p589
(dp590
g7
I1
sg8
I0
sg9
I0
sg10
I5
sg11
I1
sg12
I0
sg13
I5
sg14
I0
sg15
I0
sg16
I1
sg17
I3
sg18
I1
sg19
I0
sg20
I0
ssS'Ch 54'
p591
(dp592
g7
I1
sg8
I0
sg9
I0
sg10
I5
sg11
I1
sg12
I0
sg13
I5
sg14
I0
sg15
I0
sg16
I1
sg17
I3
sg18
I1
sg19
I0
sg20
I0
ssS'Ch 57'
p593
(dp594
g7
I1
sg8
I0
sg9
I0
sg10
I5
sg11
I1
sg12
I0
sg13
I5
sg14
I0
sg15
I0
sg16
I1
sg17
I3
sg18
I1
sg19
I0
sg20
I0
ssS'Ch 43'
p595
(dp596
g7
I1
sg8
I0
sg9
I0
sg10
I5
sg11
I1
sg12
I0
sg13
I5
sg14
I0
sg15
I0
sg16
I1
sg17
I3
sg18
I1
sg19
I0
sg20
I0
ssS'Ch 59'
p597
(dp598
g7
I1
sg8
I0
sg9
I0
sg10
I5
sg11
I1
sg12
I0
sg13
I5
sg14
I0
sg15
I0
sg16
I1
sg17
I3
sg18
I1
sg19
I0
sg20
I0
ssS'Ch 58'
p599
(dp600
g7
I1
sg8
I0
sg9
I0
sg10
I5
sg11
I1
sg12
I0
sg13
I5
sg14
I0
sg15
I0
sg16
I1
sg17
I3
sg18
I1
sg19
I0
sg20
I0
ssS'Ch 56'
p601
(dp602
g7
I1
sg8
I0
sg9
I0
sg10
I5
sg11
I1
sg12
I0
sg13
I5
sg14
I0
sg15
I0
sg16
I1
sg17
I3
sg18
I1
sg19
I0
sg20
I0
ssS'Ch 40'
p603
(dp604
g7
I1
sg8
I0
sg9
I0
sg10
I5
sg11
I1
sg12
I0
sg13
I5
sg14
I0
sg15
I0
sg16
I1
sg17
I3
sg18
I1
sg19
I0
sg20
I0
ssS'Ch 33'
p605
(dp606
g7
I1
sg8
I0
sg9
I0
sg10
I5
sg11
I1
sg12
I0
sg13
I5
sg14
I0
sg15
I0
sg16
I1
sg17
I3
sg18
I1
sg19
I0
sg20
I0
ssS'Ch 39'
p607
(dp608
g7
I1
sg8
I0
sg9
I0
sg10
I5
sg11
I1
sg12
I0
sg13
I5
sg14
I0
sg15
I0
sg16
I1
sg17
I3
sg18
I1
sg19
I0
sg20
I0
ssS'Ch 38'
p609
(dp610
g7
I1
sg8
I0
sg9
I0
sg10
I5
sg11
I1
sg12
I0
sg13
I5
sg14
I0
sg15
I0
sg16
I1
sg17
I3
sg18
I1
sg19
I0
sg20
I0
ssS'Ch 19'
p611
(dp612
g7
I1
sg8
I0
sg9
I0
sg10
I5
sg11
I1
sg12
I0
sg13
I5
sg14
I0
sg15
I0
sg16
I1
sg17
I3
sg18
I1
sg19
I0
sg20
I0
ssS'Ch 18'
p613
(dp614
g7
I1
sg8
I0
sg9
I0
sg10
I5
sg11
I1
sg12
I0
sg13
I5
sg14
I0
sg15
I0
sg16
I1
sg17
I3
sg18
I1
sg19
I0
sg20
I0
ssS'Ch 32'
p615
(dp616
g7
I1
sg8
I0
sg9
I0
sg10
I5
sg11
I1
sg12
I0
sg13
I5
sg14
I0
sg15
I0
sg16
I1
sg17
I3
sg18
I1
sg19
I0
sg20
I0
ssS'Ch 15'
p617
(dp618
g7
I1
sg8
I0
sg9
I0
sg10
I5
sg11
I1
sg12
I0
sg13
I5
sg14
I0
sg15
I0
sg16
I1
sg17
I3
sg18
I1
sg19
I0
sg20
I0
ssS'Ch 14'
p619
(dp620
g7
I1
sg8
I0
sg9
I0
sg10
I5
sg11
I1
sg12
I0
sg13
I5
sg14
I0
sg15
I0
sg16
I1
sg17
I3
sg18
I1
sg19
I0
sg20
I0
ssS'Ch 17'
p621
(dp622
g7
I1
sg8
I0
sg9
I0
sg10
I5
sg11
I1
sg12
I0
sg13
I5
sg14
I0
sg15
I0
sg16
I1
sg17
I3
sg18
I1
sg19
I0
sg20
I0
ssS'Ch 16'
p623
(dp624
g7
I1
sg8
I0
sg9
I0
sg10
I5
sg11
I1
sg12
I0
sg13
I5
sg14
I0
sg15
I0
sg16
I1
sg17
I3
sg18
I1
sg19
I0
sg20
I0
ssS'Ch 11'
p625
(dp626
g7
I1
sg8
I0
sg9
I0
sg10
I5
sg11
I1
sg12
I0
sg13
I5
sg14
I0
sg15
I0
sg16
I1
sg17
I3
sg18
I1
sg19
I0
sg20
I0
ssS'Ch 10'
p627
(dp628
g7
I1
sg8
I0
sg9
I0
sg10
I5
sg11
I1
sg12
I0
sg13
I5
sg14
I0
sg15
I0
sg16
I1
sg17
I3
sg18
I1
sg19
I0
sg20
I0
ssS'Ch 13'
p629
(dp630
g7
I1
sg8
I0
sg9
I0
sg10
I5
sg11
I1
sg12
I0
sg13
I5
sg14
I0
sg15
I0
sg16
I1
sg17
I3
sg18
I1
sg19
I0
sg20
I0
ssS'Ch 12'
p631
(dp632
g7
I1
sg8
I0
sg9
I0
sg10
I5
sg11
I1
sg12
I0
sg13
I5
sg14
I0
sg15
I0
sg16
I1
sg17
I3
sg18
I1
sg19
I0
sg20
I0
ssS'Ch 30'
p633
(dp634
g7
I1
sg8
I0
sg9
I0
sg10
I5
sg11
I1
sg12
I0
sg13
I5
sg14
I0
sg15
I0
sg16
I1
sg17
I3
sg18
I1
sg19
I0
sg20
I0
ssS'Ch 44'
p635
(dp636
g7
I1
sg8
I0
sg9
I0
sg10
I5
sg11
I1
sg12
I0
sg13
I5
sg14
I0
sg15
I0
sg16
I1
sg17
I3
sg18
I1
sg19
I0
sg20
I0
ssS'Ch 35'
p637
(dp638
g7
I1
sg8
I0
sg9
I0
sg10
I5
sg11
I1
sg12
I0
sg13
I5
sg14
I0
sg15
I0
sg16
I1
sg17
I3
sg18
I1
sg19
I0
sg20
I0
ssS'Ch 62'
p639
(dp640
g7
I1
sg8
I0
sg9
I0
sg10
I5
sg11
I1
sg12
I0
sg13
I5
sg14
I0
sg15
I0
sg16
I1
sg17
I3
sg18
I1
sg19
I0
sg20
I0
ssS'Ch 37'
p641
(dp642
g7
I1
sg8
I0
sg9
I0
sg10
I5
sg11
I1
sg12
I0
sg13
I5
sg14
I0
sg15
I0
sg16
I1
sg17
I3
sg18
I1
sg19
I0
sg20
I0
ssS'Ch 45'
p643
(dp644
g7
I1
sg8
I0
sg9
I0
sg10
I5
sg11
I1
sg12
I0
sg13
I5
sg14
I0
sg15
I0
sg16
I1
sg17
I3
sg18
I1
sg19
I0
sg20
I0
ssS'Ch 31'
p645
(dp646
g7
I1
sg8
I0
sg9
I0
sg10
I5
sg11
I1
sg12
I0
sg13
I5
sg14
I0
sg15
I0
sg16
I1
sg17
I3
sg18
I1
sg19
I0
sg20
I0
ssS'Ch 36'
p647
(dp648
g7
I1
sg8
I0
sg9
I0
sg10
I5
sg11
I1
sg12
I0
sg13
I5
sg14
I0
sg15
I0
sg16
I1
sg17
I3
sg18
I1
sg19
I0
sg20
I0
ssS'Ch 41'
p649
(dp650
g7
I1
sg8
I0
sg9
I0
sg10
I5
sg11
I1
sg12
I0
sg13
I5
sg14
I0
sg15
I0
sg16
I1
sg17
I3
sg18
I1
sg19
I0
sg20
I0
ssS'Ch 9'
p651
(dp652
g7
I1
sg8
I0
sg9
I0
sg10
I5
sg11
I1
sg12
I0
sg13
I5
sg14
I0
sg15
I0
sg16
I1
sg17
I3
sg18
I1
sg19
I0
sg20
I0
ssS'Ch 8'
p653
(dp654
g7
I1
sg8
I0
sg9
I0
sg10
I5
sg11
I1
sg12
I0
sg13
I5
sg14
I0
sg15
I0
sg16
I1
sg17
I3
sg18
I1
sg19
I0
sg20
I0
ssS'Ch 5'
p655
(dp656
g7
I1
sg8
I0
sg9
I0
sg10
I5
sg11
I1
sg12
I0
sg13
I5
sg14
I0
sg15
I0
sg16
I1
sg17
I3
sg18
I1
sg19
I0
sg20
I0
ssS'Ch 4'
p657
(dp658
g7
I1
sg8
I0
sg9
I0
sg10
I5
sg11
I1
sg12
I0
sg13
I5
sg14
I0
sg15
I0
sg16
I1
sg17
I3
sg18
I1
sg19
I0
sg20
I0
ssS'Ch 7'
p659
(dp660
g7
I1
sg8
I0
sg9
I0
sg10
I5
sg11
I1
sg12
I0
sg13
I5
sg14
I0
sg15
I0
sg16
I1
sg17
I3
sg18
I1
sg19
I0
sg20
I0
ssS'Ch 6'
p661
(dp662
g7
I1
sg8
I0
sg9
I0
sg10
I5
sg11
I1
sg12
I0
sg13
I5
sg14
I0
sg15
I0
sg16
I1
sg17
I3
sg18
I1
sg19
I0
sg20
I0
ssS'Ch 1'
p663
(dp664
g7
I1
sg8
I0
sg9
I0
sg10
I5
sg11
I1
sg12
I0
sg13
I5
sg14
I0
sg15
I0
sg16
I1
sg17
I3
sg18
I1
sg19
I0
sg20
I0
ssS'Ch 0'
p665
(dp666
g7
I1
sg8
I0
sg9
I0
sg10
I5
sg11
I1
sg12
I0
sg13
I5
sg14
I0
sg15
I0
sg16
I1
sg17
I3
sg18
I1
sg19
I0
sg20
I0
ssS'Ch 3'
p667
(dp668
g7
I1
sg8
I0
sg9
I0
sg10
I5
sg11
I1
sg12
I0
sg13
I5
sg14
I0
sg15
I0
sg16
I1
sg17
I3
sg18
I1
sg19
I0
sg20
I0
ssS'Ch 2'
p669
(dp670
g7
I1
sg8
I0
sg9
I0
sg10
I5
sg11
I1
sg12
I0
sg13
I5
sg14
I0
sg15
I0
sg16
I1
sg17
I3
sg18
I1
sg19
I0
sg20
I0
ssS'Ch 24'
p671
(dp672
g7
I1
sg8
I0
sg9
I0
sg10
I5
sg11
I1
sg12
I0
sg13
I5
sg14
I0
sg15
I0
sg16
I1
sg17
I3
sg18
I1
sg19
I0
sg20
I0
ssS'Ch 25'
p673
(dp674
g7
I1
sg8
I0
sg9
I0
sg10
I5
sg11
I1
sg12
I0
sg13
I5
sg14
I0
sg15
I0
sg16
I1
sg17
I3
sg18
I1
sg19
I0
sg20
I0
ssS'Ch 26'
p675
(dp676
g7
I1
sg8
I0
sg9
I0
sg10
I5
sg11
I1
sg12
I0
sg13
I5
sg14
I0
sg15
I0
sg16
I1
sg17
I3
sg18
I1
sg19
I0
sg20
I0
ssS'Ch 27'
p677
(dp678
g7
I1
sg8
I0
sg9
I0
sg10
I5
sg11
I1
sg12
I0
sg13
I5
sg14
I0
sg15
I0
sg16
I1
sg17
I3
sg18
I1
sg19
I0
sg20
I0
ssS'Ch 20'
p679
(dp680
g7
I1
sg8
I0
sg9
I0
sg10
I5
sg11
I1
sg12
I0
sg13
I5
sg14
I0
sg15
I0
sg16
I1
sg17
I3
sg18
I1
sg19
I0
sg20
I0
ssS'Ch 21'
p681
(dp682
g7
I1
sg8
I0
sg9
I0
sg10
I5
sg11
I1
sg12
I0
sg13
I5
sg14
I0
sg15
I0
sg16
I1
sg17
I3
sg18
I1
sg19
I0
sg20
I0
ssS'Ch 22'
p683
(dp684
g7
I1
sg8
I0
sg9
I0
sg10
I5
sg11
I1
sg12
I0
sg13
I5
sg14
I0
sg15
I0
sg16
I1
sg17
I3
sg18
I1
sg19
I0
sg20
I0
ssS'Ch 23'
p685
(dp686
g7
I1
sg8
I0
sg9
I0
sg10
I5
sg11
I1
sg12
I0
sg13
I5
sg14
I0
sg15
I0
sg16
I1
sg17
I3
sg18
I1
sg19
I0
sg20
I0
ssS'Ch 60'
p687
(dp688
g7
I1
sg8
I0
sg9
I0
sg10
I5
sg11
I1
sg12
I0
sg13
I5
sg14
I0
sg15
I0
sg16
I1
sg17
I3
sg18
I1
sg19
I0
sg20
I0
ssS'Ch 61'
p689
(dp690
g7
I1
sg8
I0
sg9
I0
sg10
I5
sg11
I1
sg12
I0
sg13
I5
sg14
I0
sg15
I0
sg16
I1
sg17
I3
sg18
I1
sg19
I0
sg20
I0
ssS'Ch 48'
p691
(dp692
g7
I1
sg8
I0
sg9
I0
sg10
I5
sg11
I1
sg12
I0
sg13
I5
sg14
I0
sg15
I0
sg16
I1
sg17
I3
sg18
I1
sg19
I0
sg20
I0
ssS'Ch 49'
p693
(dp694
g7
I1
sg8
I0
sg9
I0
sg10
I5
sg11
I1
sg12
I0
sg13
I5
sg14
I0
sg15
I0
sg16
I1
sg17
I3
sg18
I1
sg19
I0
sg20
I0
ssS'Ch 28'
p695
(dp696
g7
I1
sg8
I0
sg9
I0
sg10
I5
sg11
I1
sg12
I0
sg13
I5
sg14
I0
sg15
I0
sg16
I1
sg17
I3
sg18
I1
sg19
I0
sg20
I0
ssS'Ch 29'
p697
(dp698
g7
I1
sg8
I0
sg9
I0
sg10
I5
sg11
I1
sg12
I0
sg13
I5
sg14
I0
sg15
I0
sg16
I1
sg17
I3
sg18
I1
sg19
I0
sg20
I0
ssS'Ch 46'
p699
(dp700
g7
I1
sg8
I0
sg9
I0
sg10
I5
sg11
I1
sg12
I0
sg13
I5
sg14
I0
sg15
I0
sg16
I1
sg17
I3
sg18
I1
sg19
I0
sg20
I0
ssS'Ch 50'
p701
(dp702
g7
I1
sg8
I0
sg9
I0
sg10
I5
sg11
I1
sg12
I0
sg13
I5
sg14
I0
sg15
I0
sg16
I1
sg17
I3
sg18
I1
sg19
I0
sg20
I0
ssS'Ch 63'
p703
(dp704
g7
I1
sg8
I0
sg9
I0
sg10
I5
sg11
I1
sg12
I0
sg13
I5
sg14
I0
sg15
I0
sg16
I1
sg17
I3
sg18
I1
sg19
I0
sg20
I0
ssg143
(dp705
g145
I39
sg146
I2
sg147
I0
sg148
I14
sg149
I0
sg150
I9
sg151
I0
sg152
I1
sg153
I0
sg154
I19
sg155
I0
sg156
I15
sg157
I15
sg158
I0
sg159
I60
sg160
I2
sg161
I0
sg162
I1
sg163
I55
sg164
I7
sg165
I0
sg166
I0
sg167
I29
sg168
I0
sg169
I0
sg170
I50
sg171
I0
sg172
I55
sg173
I1
sg174
I4
sg175
I23
sg176
I0
sg177
I24
sg178
I0
sg179
I26
sg180
I0
sg181
I0
ssS'Ch 47'
p706
(dp707
g7
I1
sg8
I0
sg9
I0
sg10
I5
sg11
I1
sg12
I0
sg13
I5
sg14
I0
sg15
I0
sg16
I1
sg17
I3
sg18
I1
sg19
I0
sg20
I0
ssS'Ch 34'
p708
(dp709
g7
I1
sg8
I0
sg9
I0
sg10
I5
sg11
I1
sg12
I0
sg13
I5
sg14
I0
sg15
I0
sg16
I1
sg17
I3
sg18
I1
sg19
I0
sg20
I0
sssS'TIGER 7'
p710
(dp711
S'Ch 51'
p712
(dp713
g7
I1
sg8
I0
sg9
I0
sg10
I5
sg11
I1
sg12
I0
sg13
I5
sg14
I0
sg15
I0
sg16
I1
sg17
I3
sg18
I1
sg19
I0
sg20
I0
ssS'Ch 42'
p714
(dp715
g7
I1
sg8
I0
sg9
I0
sg10
I5
sg11
I1
sg12
I0
sg13
I5
sg14
I0
sg15
I0
sg16
I1
sg17
I3
sg18
I1
sg19
I0
sg20
I0
ssS'Ch 53'
p716
(dp717
g7
I1
sg8
I0
sg9
I0
sg10
I5
sg11
I1
sg12
I0
sg13
I5
sg14
I0
sg15
I0
sg16
I1
sg17
I3
sg18
I1
sg19
I0
sg20
I0
ssS'Ch 52'
p718
(dp719
g7
I1
sg8
I0
sg9
I0
sg10
I5
sg11
I1
sg12
I0
sg13
I5
sg14
I0
sg15
I0
sg16
I1
sg17
I3
sg18
I1
sg19
I0
sg20
I0
ssS'Ch 55'
p720
(dp721
g7
I1
sg8
I0
sg9
I0
sg10
I5
sg11
I1
sg12
I0
sg13
I5
sg14
I0
sg15
I0
sg16
I1
sg17
I3
sg18
I1
sg19
I0
sg20
I0
ssS'Ch 54'
p722
(dp723
g7
I1
sg8
I0
sg9
I0
sg10
I5
sg11
I1
sg12
I0
sg13
I5
sg14
I0
sg15
I0
sg16
I1
sg17
I3
sg18
I1
sg19
I0
sg20
I0
ssS'Ch 57'
p724
(dp725
g7
I1
sg8
I0
sg9
I0
sg10
I5
sg11
I1
sg12
I0
sg13
I5
sg14
I0
sg15
I0
sg16
I1
sg17
I3
sg18
I1
sg19
I0
sg20
I0
ssS'Ch 43'
p726
(dp727
g7
I1
sg8
I0
sg9
I0
sg10
I5
sg11
I1
sg12
I0
sg13
I5
sg14
I0
sg15
I0
sg16
I1
sg17
I3
sg18
I1
sg19
I0
sg20
I0
ssS'Ch 59'
p728
(dp729
g7
I1
sg8
I0
sg9
I0
sg10
I5
sg11
I1
sg12
I0
sg13
I5
sg14
I0
sg15
I0
sg16
I1
sg17
I3
sg18
I1
sg19
I0
sg20
I0
ssS'Ch 58'
p730
(dp731
g7
I1
sg8
I0
sg9
I0
sg10
I5
sg11
I1
sg12
I0
sg13
I5
sg14
I0
sg15
I0
sg16
I1
sg17
I3
sg18
I1
sg19
I0
sg20
I0
ssS'Ch 56'
p732
(dp733
g7
I1
sg8
I0
sg9
I0
sg10
I5
sg11
I1
sg12
I0
sg13
I5
sg14
I0
sg15
I0
sg16
I1
sg17
I3
sg18
I1
sg19
I0
sg20
I0
ssS'Ch 40'
p734
(dp735
g7
I1
sg8
I0
sg9
I0
sg10
I5
sg11
I1
sg12
I0
sg13
I5
sg14
I0
sg15
I0
sg16
I1
sg17
I3
sg18
I1
sg19
I0
sg20
I0
ssS'Ch 33'
p736
(dp737
g7
I1
sg8
I0
sg9
I0
sg10
I5
sg11
I1
sg12
I0
sg13
I5
sg14
I0
sg15
I0
sg16
I1
sg17
I3
sg18
I1
sg19
I0
sg20
I0
ssS'Ch 39'
p738
(dp739
g7
I1
sg8
I0
sg9
I0
sg10
I5
sg11
I1
sg12
I0
sg13
I5
sg14
I0
sg15
I0
sg16
I1
sg17
I3
sg18
I1
sg19
I0
sg20
I0
ssS'Ch 38'
p740
(dp741
g7
I1
sg8
I0
sg9
I0
sg10
I5
sg11
I1
sg12
I0
sg13
I5
sg14
I0
sg15
I0
sg16
I1
sg17
I3
sg18
I1
sg19
I0
sg20
I0
ssS'Ch 19'
p742
(dp743
g7
I1
sg8
I0
sg9
I0
sg10
I5
sg11
I1
sg12
I0
sg13
I5
sg14
I0
sg15
I0
sg16
I1
sg17
I3
sg18
I1
sg19
I0
sg20
I0
ssS'Ch 18'
p744
(dp745
g7
I1
sg8
I0
sg9
I0
sg10
I5
sg11
I1
sg12
I0
sg13
I5
sg14
I0
sg15
I0
sg16
I1
sg17
I3
sg18
I1
sg19
I0
sg20
I0
ssS'Ch 32'
p746
(dp747
g7
I1
sg8
I0
sg9
I0
sg10
I5
sg11
I1
sg12
I0
sg13
I5
sg14
I0
sg15
I0
sg16
I1
sg17
I3
sg18
I1
sg19
I0
sg20
I0
ssS'Ch 15'
p748
(dp749
g7
I1
sg8
I0
sg9
I0
sg10
I5
sg11
I1
sg12
I0
sg13
I5
sg14
I0
sg15
I0
sg16
I1
sg17
I3
sg18
I1
sg19
I0
sg20
I0
ssS'Ch 14'
p750
(dp751
g7
I1
sg8
I0
sg9
I0
sg10
I5
sg11
I1
sg12
I0
sg13
I5
sg14
I0
sg15
I0
sg16
I1
sg17
I3
sg18
I1
sg19
I0
sg20
I0
ssS'Ch 17'
p752
(dp753
g7
I1
sg8
I0
sg9
I0
sg10
I5
sg11
I1
sg12
I0
sg13
I5
sg14
I0
sg15
I0
sg16
I1
sg17
I3
sg18
I1
sg19
I0
sg20
I0
ssS'Ch 16'
p754
(dp755
g7
I1
sg8
I0
sg9
I0
sg10
I5
sg11
I1
sg12
I0
sg13
I5
sg14
I0
sg15
I0
sg16
I1
sg17
I3
sg18
I1
sg19
I0
sg20
I0
ssS'Ch 11'
p756
(dp757
g7
I1
sg8
I0
sg9
I0
sg10
I5
sg11
I1
sg12
I0
sg13
I5
sg14
I0
sg15
I0
sg16
I1
sg17
I3
sg18
I1
sg19
I0
sg20
I0
ssS'Ch 10'
p758
(dp759
g7
I1
sg8
I0
sg9
I0
sg10
I5
sg11
I1
sg12
I0
sg13
I5
sg14
I0
sg15
I0
sg16
I1
sg17
I3
sg18
I1
sg19
I0
sg20
I0
ssS'Ch 13'
p760
(dp761
g7
I1
sg8
I0
sg9
I0
sg10
I5
sg11
I1
sg12
I0
sg13
I5
sg14
I0
sg15
I0
sg16
I1
sg17
I3
sg18
I1
sg19
I0
sg20
I0
ssS'Ch 12'
p762
(dp763
g7
I1
sg8
I0
sg9
I0
sg10
I5
sg11
I1
sg12
I0
sg13
I5
sg14
I0
sg15
I0
sg16
I1
sg17
I3
sg18
I1
sg19
I0
sg20
I0
ssS'Ch 30'
p764
(dp765
g7
I1
sg8
I0
sg9
I0
sg10
I5
sg11
I1
sg12
I0
sg13
I5
sg14
I0
sg15
I0
sg16
I1
sg17
I3
sg18
I1
sg19
I0
sg20
I0
ssS'Ch 44'
p766
(dp767
g7
I1
sg8
I0
sg9
I0
sg10
I5
sg11
I1
sg12
I0
sg13
I5
sg14
I0
sg15
I0
sg16
I1
sg17
I3
sg18
I1
sg19
I0
sg20
I0
ssS'Ch 35'
p768
(dp769
g7
I1
sg8
I0
sg9
I0
sg10
I5
sg11
I1
sg12
I0
sg13
I5
sg14
I0
sg15
I0
sg16
I1
sg17
I3
sg18
I1
sg19
I0
sg20
I0
ssS'Ch 62'
p770
(dp771
g7
I1
sg8
I0
sg9
I0
sg10
I5
sg11
I1
sg12
I0
sg13
I5
sg14
I0
sg15
I0
sg16
I1
sg17
I3
sg18
I1
sg19
I0
sg20
I0
ssS'Ch 37'
p772
(dp773
g7
I1
sg8
I0
sg9
I0
sg10
I5
sg11
I1
sg12
I0
sg13
I5
sg14
I0
sg15
I0
sg16
I1
sg17
I3
sg18
I1
sg19
I0
sg20
I0
ssS'Ch 45'
p774
(dp775
g7
I1
sg8
I0
sg9
I0
sg10
I5
sg11
I1
sg12
I0
sg13
I5
sg14
I0
sg15
I0
sg16
I1
sg17
I3
sg18
I1
sg19
I0
sg20
I0
ssS'Ch 31'
p776
(dp777
g7
I1
sg8
I0
sg9
I0
sg10
I5
sg11
I1
sg12
I0
sg13
I5
sg14
I0
sg15
I0
sg16
I1
sg17
I3
sg18
I1
sg19
I0
sg20
I0
ssS'Ch 36'
p778
(dp779
g7
I1
sg8
I0
sg9
I0
sg10
I5
sg11
I1
sg12
I0
sg13
I5
sg14
I0
sg15
I0
sg16
I1
sg17
I3
sg18
I1
sg19
I0
sg20
I0
ssS'Ch 41'
p780
(dp781
g7
I1
sg8
I0
sg9
I0
sg10
I5
sg11
I1
sg12
I0
sg13
I5
sg14
I0
sg15
I0
sg16
I1
sg17
I3
sg18
I1
sg19
I0
sg20
I0
ssS'Ch 9'
p782
(dp783
g7
I1
sg8
I0
sg9
I0
sg10
I5
sg11
I1
sg12
I0
sg13
I5
sg14
I0
sg15
I0
sg16
I1
sg17
I3
sg18
I1
sg19
I0
sg20
I0
ssS'Ch 8'
p784
(dp785
g7
I1
sg8
I0
sg9
I0
sg10
I5
sg11
I1
sg12
I0
sg13
I5
sg14
I0
sg15
I0
sg16
I1
sg17
I3
sg18
I1
sg19
I0
sg20
I0
ssS'Ch 5'
p786
(dp787
g7
I1
sg8
I0
sg9
I0
sg10
I5
sg11
I1
sg12
I0
sg13
I5
sg14
I0
sg15
I0
sg16
I1
sg17
I3
sg18
I1
sg19
I0
sg20
I0
ssS'Ch 4'
p788
(dp789
g7
I1
sg8
I0
sg9
I0
sg10
I5
sg11
I1
sg12
I0
sg13
I5
sg14
I0
sg15
I0
sg16
I1
sg17
I3
sg18
I1
sg19
I0
sg20
I0
ssS'Ch 7'
p790
(dp791
g7
I1
sg8
I0
sg9
I0
sg10
I5
sg11
I1
sg12
I0
sg13
I5
sg14
I0
sg15
I0
sg16
I1
sg17
I3
sg18
I1
sg19
I0
sg20
I0
ssS'Ch 6'
p792
(dp793
g7
I1
sg8
I0
sg9
I0
sg10
I5
sg11
I1
sg12
I0
sg13
I5
sg14
I0
sg15
I0
sg16
I1
sg17
I3
sg18
I1
sg19
I0
sg20
I0
ssS'Ch 1'
p794
(dp795
g7
I1
sg8
I0
sg9
I0
sg10
I5
sg11
I1
sg12
I0
sg13
I5
sg14
I0
sg15
I0
sg16
I1
sg17
I3
sg18
I1
sg19
I0
sg20
I0
ssS'Ch 0'
p796
(dp797
g7
I1
sg8
I0
sg9
I0
sg10
I5
sg11
I1
sg12
I0
sg13
I5
sg14
I0
sg15
I0
sg16
I1
sg17
I3
sg18
I1
sg19
I0
sg20
I0
ssS'Ch 3'
p798
(dp799
g7
I1
sg8
I0
sg9
I0
sg10
I5
sg11
I1
sg12
I0
sg13
I5
sg14
I0
sg15
I0
sg16
I1
sg17
I3
sg18
I1
sg19
I0
sg20
I0
ssS'Ch 2'
p800
(dp801
g7
I1
sg8
I0
sg9
I0
sg10
I5
sg11
I1
sg12
I0
sg13
I5
sg14
I0
sg15
I0
sg16
I1
sg17
I3
sg18
I1
sg19
I0
sg20
I0
ssS'Ch 24'
p802
(dp803
g7
I1
sg8
I0
sg9
I0
sg10
I5
sg11
I1
sg12
I0
sg13
I5
sg14
I0
sg15
I0
sg16
I1
sg17
I3
sg18
I1
sg19
I0
sg20
I0
ssS'Ch 25'
p804
(dp805
g7
I1
sg8
I0
sg9
I0
sg10
I5
sg11
I1
sg12
I0
sg13
I5
sg14
I0
sg15
I0
sg16
I1
sg17
I3
sg18
I1
sg19
I0
sg20
I0
ssS'Ch 26'
p806
(dp807
g7
I1
sg8
I0
sg9
I0
sg10
I5
sg11
I1
sg12
I0
sg13
I5
sg14
I0
sg15
I0
sg16
I1
sg17
I3
sg18
I1
sg19
I0
sg20
I0
ssS'Ch 27'
p808
(dp809
g7
I1
sg8
I0
sg9
I0
sg10
I5
sg11
I1
sg12
I0
sg13
I5
sg14
I0
sg15
I0
sg16
I1
sg17
I3
sg18
I1
sg19
I0
sg20
I0
ssS'Ch 20'
p810
(dp811
g7
I1
sg8
I0
sg9
I0
sg10
I5
sg11
I1
sg12
I0
sg13
I5
sg14
I0
sg15
I0
sg16
I1
sg17
I3
sg18
I1
sg19
I0
sg20
I0
ssS'Ch 21'
p812
(dp813
g7
I1
sg8
I0
sg9
I0
sg10
I5
sg11
I1
sg12
I0
sg13
I5
sg14
I0
sg15
I0
sg16
I1
sg17
I3
sg18
I1
sg19
I0
sg20
I0
ssS'Ch 22'
p814
(dp815
g7
I1
sg8
I0
sg9
I0
sg10
I5
sg11
I1
sg12
I0
sg13
I5
sg14
I0
sg15
I0
sg16
I1
sg17
I3
sg18
I1
sg19
I0
sg20
I0
ssS'Ch 23'
p816
(dp817
g7
I1
sg8
I0
sg9
I0
sg10
I5
sg11
I1
sg12
I0
sg13
I5
sg14
I0
sg15
I0
sg16
I1
sg17
I3
sg18
I1
sg19
I0
sg20
I0
ssS'Ch 60'
p818
(dp819
g7
I1
sg8
I0
sg9
I0
sg10
I5
sg11
I1
sg12
I0
sg13
I5
sg14
I0
sg15
I0
sg16
I1
sg17
I3
sg18
I1
sg19
I0
sg20
I0
ssS'Ch 61'
p820
(dp821
g7
I1
sg8
I0
sg9
I0
sg10
I5
sg11
I1
sg12
I0
sg13
I5
sg14
I0
sg15
I0
sg16
I1
sg17
I3
sg18
I1
sg19
I0
sg20
I0
ssS'Ch 48'
p822
(dp823
g7
I1
sg8
I0
sg9
I0
sg10
I5
sg11
I1
sg12
I0
sg13
I5
sg14
I0
sg15
I0
sg16
I1
sg17
I3
sg18
I1
sg19
I0
sg20
I0
ssS'Ch 49'
p824
(dp825
g7
I1
sg8
I0
sg9
I0
sg10
I5
sg11
I1
sg12
I0
sg13
I5
sg14
I0
sg15
I0
sg16
I1
sg17
I3
sg18
I1
sg19
I0
sg20
I0
ssS'Ch 28'
p826
(dp827
g7
I1
sg8
I0
sg9
I0
sg10
I5
sg11
I1
sg12
I0
sg13
I5
sg14
I0
sg15
I0
sg16
I1
sg17
I3
sg18
I1
sg19
I0
sg20
I0
ssS'Ch 29'
p828
(dp829
g7
I1
sg8
I0
sg9
I0
sg10
I5
sg11
I1
sg12
I0
sg13
I5
sg14
I0
sg15
I0
sg16
I1
sg17
I3
sg18
I1
sg19
I0
sg20
I0
ssS'Ch 46'
p830
(dp831
g7
I1
sg8
I0
sg9
I0
sg10
I5
sg11
I1
sg12
I0
sg13
I5
sg14
I0
sg15
I0
sg16
I1
sg17
I3
sg18
I1
sg19
I0
sg20
I0
ssS'Ch 50'
p832
(dp833
g7
I1
sg8
I0
sg9
I0
sg10
I5
sg11
I1
sg12
I0
sg13
I5
sg14
I0
sg15
I0
sg16
I1
sg17
I3
sg18
I1
sg19
I0
sg20
I0
ssS'Ch 63'
p834
(dp835
g7
I1
sg8
I0
sg9
I0
sg10
I5
sg11
I1
sg12
I0
sg13
I5
sg14
I0
sg15
I0
sg16
I1
sg17
I3
sg18
I1
sg19
I0
sg20
I0
ssg143
(dp836
g145
I39
sg146
I2
sg147
I0
sg148
I14
sg149
I0
sg150
I9
sg151
I0
sg152
I1
sg153
I0
sg154
I19
sg155
I0
sg156
I15
sg157
I15
sg158
I0
sg159
I60
sg160
I2
sg161
I0
sg162
I1
sg163
I55
sg164
I7
sg165
I0
sg166
I0
sg167
I29
sg168
I0
sg169
I0
sg170
I50
sg171
I0
sg172
I55
sg173
I1
sg174
I4
sg175
I23
sg176
I0
sg177
I24
sg178
I0
sg179
I26
sg180
I0
sg181
I0
ssS'Ch 47'
p837
(dp838
g7
I1
sg8
I0
sg9
I0
sg10
I5
sg11
I1
sg12
I0
sg13
I5
sg14
I0
sg15
I0
sg16
I1
sg17
I3
sg18
I1
sg19
I0
sg20
I0
ssS'Ch 34'
p839
(dp840
g7
I1
sg8
I0
sg9
I0
sg10
I5
sg11
I1
sg12
I0
sg13
I5
sg14
I0
sg15
I0
sg16
I1
sg17
I3
sg18
I1
sg19
I0
sg20
I0
sssS'TIGER 4'
p841
(dp842
S'Ch 51'
p843
(dp844
g7
I1
sg8
I0
sg9
I0
sg10
I5
sg11
I1
sg12
I0
sg13
I5
sg14
I0
sg15
I0
sg16
I1
sg17
I3
sg18
I1
sg19
I0
sg20
I0
ssS'Ch 42'
p845
(dp846
g7
I1
sg8
I0
sg9
I0
sg10
I5
sg11
I1
sg12
I0
sg13
I5
sg14
I0
sg15
I0
sg16
I1
sg17
I3
sg18
I1
sg19
I0
sg20
I0
ssS'Ch 53'
p847
(dp848
g7
I1
sg8
I0
sg9
I0
sg10
I5
sg11
I1
sg12
I0
sg13
I5
sg14
I0
sg15
I0
sg16
I1
sg17
I3
sg18
I1
sg19
I0
sg20
I0
ssS'Ch 52'
p849
(dp850
g7
I1
sg8
I0
sg9
I0
sg10
I5
sg11
I1
sg12
I0
sg13
I5
sg14
I0
sg15
I0
sg16
I1
sg17
I3
sg18
I1
sg19
I0
sg20
I0
ssS'Ch 55'
p851
(dp852
g7
I1
sg8
I0
sg9
I0
sg10
I5
sg11
I1
sg12
I0
sg13
I5
sg14
I0
sg15
I0
sg16
I1
sg17
I3
sg18
I1
sg19
I0
sg20
I0
ssS'Ch 54'
p853
(dp854
g7
I1
sg8
I0
sg9
I0
sg10
I5
sg11
I1
sg12
I0
sg13
I5
sg14
I0
sg15
I0
sg16
I1
sg17
I3
sg18
I1
sg19
I0
sg20
I0
ssS'Ch 57'
p855
(dp856
g7
I1
sg8
I0
sg9
I0
sg10
I5
sg11
I1
sg12
I0
sg13
I5
sg14
I0
sg15
I0
sg16
I1
sg17
I3
sg18
I1
sg19
I0
sg20
I0
ssS'Ch 43'
p857
(dp858
g7
I1
sg8
I0
sg9
I0
sg10
I5
sg11
I1
sg12
I0
sg13
I5
sg14
I0
sg15
I0
sg16
I1
sg17
I3
sg18
I1
sg19
I0
sg20
I0
ssS'Ch 59'
p859
(dp860
g7
I1
sg8
I0
sg9
I0
sg10
I5
sg11
I1
sg12
I0
sg13
I5
sg14
I0
sg15
I0
sg16
I1
sg17
I3
sg18
I1
sg19
I0
sg20
I0
ssS'Ch 58'
p861
(dp862
g7
I1
sg8
I0
sg9
I0
sg10
I5
sg11
I1
sg12
I0
sg13
I5
sg14
I0
sg15
I0
sg16
I1
sg17
I3
sg18
I1
sg19
I0
sg20
I0
ssS'Ch 56'
p863
(dp864
g7
I1
sg8
I0
sg9
I0
sg10
I5
sg11
I1
sg12
I0
sg13
I5
sg14
I0
sg15
I0
sg16
I1
sg17
I3
sg18
I1
sg19
I0
sg20
I0
ssS'Ch 40'
p865
(dp866
g7
I1
sg8
I0
sg9
I0
sg10
I5
sg11
I1
sg12
I0
sg13
I5
sg14
I0
sg15
I0
sg16
I1
sg17
I3
sg18
I1
sg19
I0
sg20
I0
ssS'Ch 33'
p867
(dp868
g7
I1
sg8
I0
sg9
I0
sg10
I5
sg11
I1
sg12
I0
sg13
I5
sg14
I0
sg15
I0
sg16
I1
sg17
I3
sg18
I1
sg19
I0
sg20
I0
ssS'Ch 39'
p869
(dp870
g7
I1
sg8
I0
sg9
I0
sg10
I5
sg11
I1
sg12
I0
sg13
I5
sg14
I0
sg15
I0
sg16
I1
sg17
I3
sg18
I1
sg19
I0
sg20
I0
ssS'Ch 38'
p871
(dp872
g7
I1
sg8
I0
sg9
I0
sg10
I5
sg11
I1
sg12
I0
sg13
I5
sg14
I0
sg15
I0
sg16
I1
sg17
I3
sg18
I1
sg19
I0
sg20
I0
ssS'Ch 19'
p873
(dp874
g7
I1
sg8
I0
sg9
I0
sg10
I5
sg11
I1
sg12
I0
sg13
I5
sg14
I0
sg15
I0
sg16
I1
sg17
I3
sg18
I1
sg19
I0
sg20
I0
ssS'Ch 18'
p875
(dp876
g7
I1
sg8
I0
sg9
I0
sg10
I5
sg11
I1
sg12
I0
sg13
I5
sg14
I0
sg15
I0
sg16
I1
sg17
I3
sg18
I1
sg19
I0
sg20
I0
ssS'Ch 32'
p877
(dp878
g7
I1
sg8
I0
sg9
I0
sg10
I5
sg11
I1
sg12
I0
sg13
I5
sg14
I0
sg15
I0
sg16
I1
sg17
I3
sg18
I1
sg19
I0
sg20
I0
ssS'Ch 15'
p879
(dp880
g7
I1
sg8
I0
sg9
I0
sg10
I5
sg11
I1
sg12
I0
sg13
I5
sg14
I0
sg15
I0
sg16
I1
sg17
I3
sg18
I1
sg19
I0
sg20
I0
ssS'Ch 14'
p881
(dp882
g7
I1
sg8
I0
sg9
I0
sg10
I5
sg11
I1
sg12
I0
sg13
I5
sg14
I0
sg15
I0
sg16
I1
sg17
I3
sg18
I1
sg19
I0
sg20
I0
ssS'Ch 17'
p883
(dp884
g7
I1
sg8
I0
sg9
I0
sg10
I5
sg11
I1
sg12
I0
sg13
I5
sg14
I0
sg15
I0
sg16
I1
sg17
I3
sg18
I1
sg19
I0
sg20
I0
ssS'Ch 16'
p885
(dp886
g7
I1
sg8
I0
sg9
I0
sg10
I5
sg11
I1
sg12
I0
sg13
I5
sg14
I0
sg15
I0
sg16
I1
sg17
I3
sg18
I1
sg19
I0
sg20
I0
ssS'Ch 11'
p887
(dp888
g7
I1
sg8
I0
sg9
I0
sg10
I5
sg11
I1
sg12
I0
sg13
I5
sg14
I0
sg15
I0
sg16
I1
sg17
I3
sg18
I1
sg19
I0
sg20
I0
ssS'Ch 10'
p889
(dp890
g7
I1
sg8
I0
sg9
I0
sg10
I5
sg11
I1
sg12
I0
sg13
I5
sg14
I0
sg15
I0
sg16
I1
sg17
I3
sg18
I1
sg19
I0
sg20
I0
ssS'Ch 13'
p891
(dp892
g7
I1
sg8
I0
sg9
I0
sg10
I5
sg11
I1
sg12
I0
sg13
I5
sg14
I0
sg15
I0
sg16
I1
sg17
I3
sg18
I1
sg19
I0
sg20
I0
ssS'Ch 12'
p893
(dp894
g7
I1
sg8
I0
sg9
I0
sg10
I5
sg11
I1
sg12
I0
sg13
I5
sg14
I0
sg15
I0
sg16
I1
sg17
I3
sg18
I1
sg19
I0
sg20
I0
ssS'Ch 30'
p895
(dp896
g7
I1
sg8
I0
sg9
I0
sg10
I5
sg11
I1
sg12
I0
sg13
I5
sg14
I0
sg15
I0
sg16
I1
sg17
I3
sg18
I1
sg19
I0
sg20
I0
ssS'Ch 44'
p897
(dp898
g7
I1
sg8
I0
sg9
I0
sg10
I5
sg11
I1
sg12
I0
sg13
I5
sg14
I0
sg15
I0
sg16
I1
sg17
I3
sg18
I1
sg19
I0
sg20
I0
ssS'Ch 35'
p899
(dp900
g7
I1
sg8
I0
sg9
I0
sg10
I5
sg11
I1
sg12
I0
sg13
I5
sg14
I0
sg15
I0
sg16
I1
sg17
I3
sg18
I1
sg19
I0
sg20
I0
ssS'Ch 62'
p901
(dp902
g7
I1
sg8
I0
sg9
I0
sg10
I5
sg11
I1
sg12
I0
sg13
I5
sg14
I0
sg15
I0
sg16
I1
sg17
I3
sg18
I1
sg19
I0
sg20
I0
ssS'Ch 37'
p903
(dp904
g7
I1
sg8
I0
sg9
I0
sg10
I5
sg11
I1
sg12
I0
sg13
I5
sg14
I0
sg15
I0
sg16
I1
sg17
I3
sg18
I1
sg19
I0
sg20
I0
ssS'Ch 45'
p905
(dp906
g7
I1
sg8
I0
sg9
I0
sg10
I5
sg11
I1
sg12
I0
sg13
I5
sg14
I0
sg15
I0
sg16
I1
sg17
I3
sg18
I1
sg19
I0
sg20
I0
ssS'Ch 31'
p907
(dp908
g7
I1
sg8
I0
sg9
I0
sg10
I5
sg11
I1
sg12
I0
sg13
I5
sg14
I0
sg15
I0
sg16
I1
sg17
I3
sg18
I1
sg19
I0
sg20
I0
ssS'Ch 36'
p909
(dp910
g7
I1
sg8
I0
sg9
I0
sg10
I5
sg11
I1
sg12
I0
sg13
I5
sg14
I0
sg15
I0
sg16
I1
sg17
I3
sg18
I1
sg19
I0
sg20
I0
ssS'Ch 41'
p911
(dp912
g7
I1
sg8
I0
sg9
I0
sg10
I5
sg11
I1
sg12
I0
sg13
I5
sg14
I0
sg15
I0
sg16
I1
sg17
I3
sg18
I1
sg19
I0
sg20
I0
ssS'Ch 9'
p913
(dp914
g7
I1
sg8
I0
sg9
I0
sg10
I5
sg11
I1
sg12
I0
sg13
I5
sg14
I0
sg15
I0
sg16
I1
sg17
I3
sg18
I1
sg19
I0
sg20
I0
ssS'Ch 8'
p915
(dp916
g7
I1
sg8
I0
sg9
I0
sg10
I5
sg11
I1
sg12
I0
sg13
I5
sg14
I0
sg15
I0
sg16
I1
sg17
I3
sg18
I1
sg19
I0
sg20
I0
ssS'Ch 5'
p917
(dp918
g7
I1
sg8
I0
sg9
I0
sg10
I5
sg11
I1
sg12
I0
sg13
I5
sg14
I0
sg15
I0
sg16
I1
sg17
I3
sg18
I1
sg19
I0
sg20
I0
ssS'Ch 4'
p919
(dp920
g7
I1
sg8
I0
sg9
I0
sg10
I5
sg11
I1
sg12
I0
sg13
I5
sg14
I0
sg15
I0
sg16
I1
sg17
I3
sg18
I1
sg19
I0
sg20
I0
ssS'Ch 7'
p921
(dp922
g7
I1
sg8
I0
sg9
I0
sg10
I5
sg11
I1
sg12
I0
sg13
I5
sg14
I0
sg15
I0
sg16
I1
sg17
I3
sg18
I1
sg19
I0
sg20
I0
ssS'Ch 6'
p923
(dp924
g7
I1
sg8
I0
sg9
I0
sg10
I5
sg11
I1
sg12
I0
sg13
I5
sg14
I0
sg15
I0
sg16
I1
sg17
I3
sg18
I1
sg19
I0
sg20
I0
ssS'Ch 1'
p925
(dp926
g7
I1
sg8
I0
sg9
I0
sg10
I5
sg11
I1
sg12
I0
sg13
I5
sg14
I0
sg15
I0
sg16
I1
sg17
I3
sg18
I1
sg19
I0
sg20
I0
ssS'Ch 0'
p927
(dp928
g7
I1
sg8
I0
sg9
I0
sg10
I5
sg11
I1
sg12
I0
sg13
I5
sg14
I0
sg15
I0
sg16
I1
sg17
I3
sg18
I1
sg19
I0
sg20
I0
ssS'Ch 3'
p929
(dp930
g7
I1
sg8
I0
sg9
I0
sg10
I5
sg11
I1
sg12
I0
sg13
I5
sg14
I0
sg15
I0
sg16
I1
sg17
I3
sg18
I1
sg19
I0
sg20
I0
ssS'Ch 2'
p931
(dp932
g7
I1
sg8
I0
sg9
I0
sg10
I5
sg11
I1
sg12
I0
sg13
I5
sg14
I0
sg15
I0
sg16
I1
sg17
I3
sg18
I1
sg19
I0
sg20
I0
ssS'Ch 24'
p933
(dp934
g7
I1
sg8
I0
sg9
I0
sg10
I5
sg11
I1
sg12
I0
sg13
I5
sg14
I0
sg15
I0
sg16
I1
sg17
I3
sg18
I1
sg19
I0
sg20
I0
ssS'Ch 25'
p935
(dp936
g7
I1
sg8
I0
sg9
I0
sg10
I5
sg11
I1
sg12
I0
sg13
I5
sg14
I0
sg15
I0
sg16
I1
sg17
I3
sg18
I1
sg19
I0
sg20
I0
ssS'Ch 26'
p937
(dp938
g7
I1
sg8
I0
sg9
I0
sg10
I5
sg11
I1
sg12
I0
sg13
I5
sg14
I0
sg15
I0
sg16
I1
sg17
I3
sg18
I1
sg19
I0
sg20
I0
ssS'Ch 27'
p939
(dp940
g7
I1
sg8
I0
sg9
I0
sg10
I5
sg11
I1
sg12
I0
sg13
I5
sg14
I0
sg15
I0
sg16
I1
sg17
I3
sg18
I1
sg19
I0
sg20
I0
ssS'Ch 20'
p941
(dp942
g7
I1
sg8
I0
sg9
I0
sg10
I5
sg11
I1
sg12
I0
sg13
I5
sg14
I0
sg15
I0
sg16
I1
sg17
I3
sg18
I1
sg19
I0
sg20
I0
ssS'Ch 21'
p943
(dp944
g7
I1
sg8
I0
sg9
I0
sg10
I5
sg11
I1
sg12
I0
sg13
I5
sg14
I0
sg15
I0
sg16
I1
sg17
I3
sg18
I1
sg19
I0
sg20
I0
ssS'Ch 22'
p945
(dp946
g7
I1
sg8
I0
sg9
I0
sg10
I5
sg11
I1
sg12
I0
sg13
I5
sg14
I0
sg15
I0
sg16
I1
sg17
I3
sg18
I1
sg19
I0
sg20
I0
ssS'Ch 23'
p947
(dp948
g7
I1
sg8
I0
sg9
I0
sg10
I5
sg11
I1
sg12
I0
sg13
I5
sg14
I0
sg15
I0
sg16
I1
sg17
I3
sg18
I1
sg19
I0
sg20
I0
ssS'Ch 60'
p949
(dp950
g7
I1
sg8
I0
sg9
I0
sg10
I5
sg11
I1
sg12
I0
sg13
I5
sg14
I0
sg15
I0
sg16
I1
sg17
I3
sg18
I1
sg19
I0
sg20
I0
ssS'Ch 61'
p951
(dp952
g7
I1
sg8
I0
sg9
I0
sg10
I5
sg11
I1
sg12
I0
sg13
I5
sg14
I0
sg15
I0
sg16
I1
sg17
I3
sg18
I1
sg19
I0
sg20
I0
ssS'Ch 48'
p953
(dp954
g7
I1
sg8
I0
sg9
I0
sg10
I5
sg11
I1
sg12
I0
sg13
I5
sg14
I0
sg15
I0
sg16
I1
sg17
I3
sg18
I1
sg19
I0
sg20
I0
ssS'Ch 49'
p955
(dp956
g7
I1
sg8
I0
sg9
I0
sg10
I5
sg11
I1
sg12
I0
sg13
I5
sg14
I0
sg15
I0
sg16
I1
sg17
I3
sg18
I1
sg19
I0
sg20
I0
ssS'Ch 28'
p957
(dp958
g7
I1
sg8
I0
sg9
I0
sg10
I5
sg11
I1
sg12
I0
sg13
I5
sg14
I0
sg15
I0
sg16
I1
sg17
I3
sg18
I1
sg19
I0
sg20
I0
ssS'Ch 29'
p959
(dp960
g7
I1
sg8
I0
sg9
I0
sg10
I5
sg11
I1
sg12
I0
sg13
I5
sg14
I0
sg15
I0
sg16
I1
sg17
I3
sg18
I1
sg19
I0
sg20
I0
ssS'Ch 46'
p961
(dp962
g7
I1
sg8
I0
sg9
I0
sg10
I5
sg11
I1
sg12
I0
sg13
I5
sg14
I0
sg15
I0
sg16
I1
sg17
I3
sg18
I1
sg19
I0
sg20
I0
ssS'Ch 50'
p963
(dp964
g7
I1
sg8
I0
sg9
I0
sg10
I5
sg11
I1
sg12
I0
sg13
I5
sg14
I0
sg15
I0
sg16
I1
sg17
I3
sg18
I1
sg19
I0
sg20
I0
ssS'Ch 63'
p965
(dp966
g7
I1
sg8
I0
sg9
I0
sg10
I5
sg11
I1
sg12
I0
sg13
I5
sg14
I0
sg15
I0
sg16
I1
sg17
I3
sg18
I1
sg19
I0
sg20
I0
ssg143
(dp967
g145
I39
sg146
I2
sg147
I0
sg148
I14
sg149
I0
sg150
I9
sg151
I0
sg152
I1
sg153
I0
sg154
I19
sg155
I0
sg156
I15
sg157
I15
sg158
I0
sg159
I60
sg160
I2
sg161
I0
sg162
I1
sg163
I55
sg164
I7
sg165
I0
sg166
I0
sg167
I29
sg168
I0
sg169
I0
sg170
I50
sg171
I0
sg172
I55
sg173
I1
sg174
I4
sg175
I23
sg176
I0
sg177
I24
sg178
I0
sg179
I26
sg180
I0
sg181
I0
ssS'Ch 47'
p968
(dp969
g7
I1
sg8
I0
sg9
I0
sg10
I5
sg11
I1
sg12
I0
sg13
I5
sg14
I0
sg15
I0
sg16
I1
sg17
I3
sg18
I1
sg19
I0
sg20
I0
ssS'Ch 34'
p970
(dp971
g7
I1
sg8
I0
sg9
I0
sg10
I5
sg11
I1
sg12
I0
sg13
I5
sg14
I0
sg15
I0
sg16
I1
sg17
I3
sg18
I1
sg19
I0
sg20
I0
sssS'TIGER 5'
p972
(dp973
S'Ch 51'
p974
(dp975
g7
I1
sg8
I0
sg9
I0
sg10
I5
sg11
I1
sg12
I0
sg13
I5
sg14
I0
sg15
I0
sg16
I1
sg17
I3
sg18
I1
sg19
I0
sg20
I0
ssS'Ch 42'
p976
(dp977
g7
I1
sg8
I0
sg9
I0
sg10
I5
sg11
I1
sg12
I0
sg13
I5
sg14
I0
sg15
I0
sg16
I1
sg17
I3
sg18
I1
sg19
I0
sg20
I0
ssS'Ch 53'
p978
(dp979
g7
I1
sg8
I0
sg9
I0
sg10
I5
sg11
I1
sg12
I0
sg13
I5
sg14
I0
sg15
I0
sg16
I1
sg17
I3
sg18
I1
sg19
I0
sg20
I0
ssS'Ch 52'
p980
(dp981
g7
I1
sg8
I0
sg9
I0
sg10
I5
sg11
I1
sg12
I0
sg13
I5
sg14
I0
sg15
I0
sg16
I1
sg17
I3
sg18
I1
sg19
I0
sg20
I0
ssS'Ch 55'
p982
(dp983
g7
I1
sg8
I0
sg9
I0
sg10
I5
sg11
I1
sg12
I0
sg13
I5
sg14
I0
sg15
I0
sg16
I1
sg17
I3
sg18
I1
sg19
I0
sg20
I0
ssS'Ch 54'
p984
(dp985
g7
I1
sg8
I0
sg9
I0
sg10
I5
sg11
I1
sg12
I0
sg13
I5
sg14
I0
sg15
I0
sg16
I1
sg17
I3
sg18
I1
sg19
I0
sg20
I0
ssS'Ch 57'
p986
(dp987
g7
I1
sg8
I0
sg9
I0
sg10
I5
sg11
I1
sg12
I0
sg13
I5
sg14
I0
sg15
I0
sg16
I1
sg17
I3
sg18
I1
sg19
I0
sg20
I0
ssS'Ch 43'
p988
(dp989
g7
I1
sg8
I0
sg9
I0
sg10
I5
sg11
I1
sg12
I0
sg13
I5
sg14
I0
sg15
I0
sg16
I1
sg17
I3
sg18
I1
sg19
I0
sg20
I0
ssS'Ch 59'
p990
(dp991
g7
I1
sg8
I0
sg9
I0
sg10
I5
sg11
I1
sg12
I0
sg13
I5
sg14
I0
sg15
I0
sg16
I1
sg17
I3
sg18
I1
sg19
I0
sg20
I0
ssS'Ch 58'
p992
(dp993
g7
I1
sg8
I0
sg9
I0
sg10
I5
sg11
I1
sg12
I0
sg13
I5
sg14
I0
sg15
I0
sg16
I1
sg17
I3
sg18
I1
sg19
I0
sg20
I0
ssS'Ch 56'
p994
(dp995
g7
I1
sg8
I0
sg9
I0
sg10
I5
sg11
I1
sg12
I0
sg13
I5
sg14
I0
sg15
I0
sg16
I1
sg17
I3
sg18
I1
sg19
I0
sg20
I0
ssS'Ch 40'
p996
(dp997
g7
I1
sg8
I0
sg9
I0
sg10
I5
sg11
I1
sg12
I0
sg13
I5
sg14
I0
sg15
I0
sg16
I1
sg17
I3
sg18
I1
sg19
I0
sg20
I0
ssS'Ch 33'
p998
(dp999
g7
I1
sg8
I0
sg9
I0
sg10
I5
sg11
I1
sg12
I0
sg13
I5
sg14
I0
sg15
I0
sg16
I1
sg17
I3
sg18
I1
sg19
I0
sg20
I0
ssS'Ch 39'
p1000
(dp1001
g7
I1
sg8
I0
sg9
I0
sg10
I5
sg11
I1
sg12
I0
sg13
I5
sg14
I0
sg15
I0
sg16
I1
sg17
I3
sg18
I1
sg19
I0
sg20
I0
ssS'Ch 38'
p1002
(dp1003
g7
I1
sg8
I0
sg9
I0
sg10
I5
sg11
I1
sg12
I0
sg13
I5
sg14
I0
sg15
I0
sg16
I1
sg17
I3
sg18
I1
sg19
I0
sg20
I0
ssS'Ch 19'
p1004
(dp1005
g7
I1
sg8
I0
sg9
I0
sg10
I5
sg11
I1
sg12
I0
sg13
I5
sg14
I0
sg15
I0
sg16
I1
sg17
I3
sg18
I1
sg19
I0
sg20
I0
ssS'Ch 18'
p1006
(dp1007
g7
I1
sg8
I0
sg9
I0
sg10
I5
sg11
I1
sg12
I0
sg13
I5
sg14
I0
sg15
I0
sg16
I1
sg17
I3
sg18
I1
sg19
I0
sg20
I0
ssS'Ch 32'
p1008
(dp1009
g7
I1
sg8
I0
sg9
I0
sg10
I5
sg11
I1
sg12
I0
sg13
I5
sg14
I0
sg15
I0
sg16
I1
sg17
I3
sg18
I1
sg19
I0
sg20
I0
ssS'Ch 15'
p1010
(dp1011
g7
I1
sg8
I0
sg9
I0
sg10
I5
sg11
I1
sg12
I0
sg13
I5
sg14
I0
sg15
I0
sg16
I1
sg17
I3
sg18
I1
sg19
I0
sg20
I0
ssS'Ch 14'
p1012
(dp1013
g7
I1
sg8
I0
sg9
I0
sg10
I5
sg11
I1
sg12
I0
sg13
I5
sg14
I0
sg15
I0
sg16
I1
sg17
I3
sg18
I1
sg19
I0
sg20
I0
ssS'Ch 17'
p1014
(dp1015
g7
I1
sg8
I0
sg9
I0
sg10
I5
sg11
I1
sg12
I0
sg13
I5
sg14
I0
sg15
I0
sg16
I1
sg17
I3
sg18
I1
sg19
I0
sg20
I0
ssS'Ch 16'
p1016
(dp1017
g7
I1
sg8
I0
sg9
I0
sg10
I5
sg11
I1
sg12
I0
sg13
I5
sg14
I0
sg15
I0
sg16
I1
sg17
I3
sg18
I1
sg19
I0
sg20
I0
ssS'Ch 11'
p1018
(dp1019
g7
I1
sg8
I0
sg9
I0
sg10
I5
sg11
I1
sg12
I0
sg13
I5
sg14
I0
sg15
I0
sg16
I1
sg17
I3
sg18
I1
sg19
I0
sg20
I0
ssS'Ch 10'
p1020
(dp1021
g7
I1
sg8
I0
sg9
I0
sg10
I5
sg11
I1
sg12
I0
sg13
I5
sg14
I0
sg15
I0
sg16
I1
sg17
I3
sg18
I1
sg19
I0
sg20
I0
ssS'Ch 13'
p1022
(dp1023
g7
I1
sg8
I0
sg9
I0
sg10
I5
sg11
I1
sg12
I0
sg13
I5
sg14
I0
sg15
I0
sg16
I1
sg17
I3
sg18
I1
sg19
I0
sg20
I0
ssS'Ch 12'
p1024
(dp1025
g7
I1
sg8
I0
sg9
I0
sg10
I5
sg11
I1
sg12
I0
sg13
I5
sg14
I0
sg15
I0
sg16
I1
sg17
I3
sg18
I1
sg19
I0
sg20
I0
ssS'Ch 30'
p1026
(dp1027
g7
I1
sg8
I0
sg9
I0
sg10
I5
sg11
I1
sg12
I0
sg13
I5
sg14
I0
sg15
I0
sg16
I1
sg17
I3
sg18
I1
sg19
I0
sg20
I0
ssS'Ch 44'
p1028
(dp1029
g7
I1
sg8
I0
sg9
I0
sg10
I5
sg11
I1
sg12
I0
sg13
I5
sg14
I0
sg15
I0
sg16
I1
sg17
I3
sg18
I1
sg19
I0
sg20
I0
ssS'Ch 35'
p1030
(dp1031
g7
I1
sg8
I0
sg9
I0
sg10
I5
sg11
I1
sg12
I0
sg13
I5
sg14
I0
sg15
I0
sg16
I1
sg17
I3
sg18
I1
sg19
I0
sg20
I0
ssS'Ch 62'
p1032
(dp1033
g7
I1
sg8
I0
sg9
I0
sg10
I5
sg11
I1
sg12
I0
sg13
I5
sg14
I0
sg15
I0
sg16
I1
sg17
I3
sg18
I1
sg19
I0
sg20
I0
ssS'Ch 37'
p1034
(dp1035
g7
I1
sg8
I0
sg9
I0
sg10
I5
sg11
I1
sg12
I0
sg13
I5
sg14
I0
sg15
I0
sg16
I1
sg17
I3
sg18
I1
sg19
I0
sg20
I0
ssS'Ch 45'
p1036
(dp1037
g7
I1
sg8
I0
sg9
I0
sg10
I5
sg11
I1
sg12
I0
sg13
I5
sg14
I0
sg15
I0
sg16
I1
sg17
I3
sg18
I1
sg19
I0
sg20
I0
ssS'Ch 31'
p1038
(dp1039
g7
I1
sg8
I0
sg9
I0
sg10
I5
sg11
I1
sg12
I0
sg13
I5
sg14
I0
sg15
I0
sg16
I1
sg17
I3
sg18
I1
sg19
I0
sg20
I0
ssS'Ch 36'
p1040
(dp1041
g7
I1
sg8
I0
sg9
I0
sg10
I5
sg11
I1
sg12
I0
sg13
I5
sg14
I0
sg15
I0
sg16
I1
sg17
I3
sg18
I1
sg19
I0
sg20
I0
ssS'Ch 41'
p1042
(dp1043
g7
I1
sg8
I0
sg9
I0
sg10
I5
sg11
I1
sg12
I0
sg13
I5
sg14
I0
sg15
I0
sg16
I1
sg17
I3
sg18
I1
sg19
I0
sg20
I0
ssS'Ch 9'
p1044
(dp1045
g7
I1
sg8
I0
sg9
I0
sg10
I5
sg11
I1
sg12
I0
sg13
I5
sg14
I0
sg15
I0
sg16
I1
sg17
I3
sg18
I1
sg19
I0
sg20
I0
ssS'Ch 8'
p1046
(dp1047
g7
I1
sg8
I0
sg9
I0
sg10
I5
sg11
I1
sg12
I0
sg13
I5
sg14
I0
sg15
I0
sg16
I1
sg17
I3
sg18
I1
sg19
I0
sg20
I0
ssS'Ch 5'
p1048
(dp1049
g7
I1
sg8
I0
sg9
I0
sg10
I5
sg11
I1
sg12
I0
sg13
I5
sg14
I0
sg15
I0
sg16
I1
sg17
I3
sg18
I1
sg19
I0
sg20
I0
ssS'Ch 4'
p1050
(dp1051
g7
I1
sg8
I0
sg9
I0
sg10
I5
sg11
I1
sg12
I0
sg13
I5
sg14
I0
sg15
I0
sg16
I1
sg17
I3
sg18
I1
sg19
I0
sg20
I0
ssS'Ch 7'
p1052
(dp1053
g7
I1
sg8
I0
sg9
I0
sg10
I5
sg11
I1
sg12
I0
sg13
I5
sg14
I0
sg15
I0
sg16
I1
sg17
I3
sg18
I1
sg19
I0
sg20
I0
ssS'Ch 6'
p1054
(dp1055
g7
I1
sg8
I0
sg9
I0
sg10
I5
sg11
I1
sg12
I0
sg13
I5
sg14
I0
sg15
I0
sg16
I1
sg17
I3
sg18
I1
sg19
I0
sg20
I0
ssS'Ch 1'
p1056
(dp1057
g7
I1
sg8
I0
sg9
I0
sg10
I5
sg11
I1
sg12
I0
sg13
I5
sg14
I0
sg15
I0
sg16
I1
sg17
I3
sg18
I1
sg19
I0
sg20
I0
ssS'Ch 0'
p1058
(dp1059
g7
I1
sg8
I0
sg9
I0
sg10
I5
sg11
I1
sg12
I0
sg13
I5
sg14
I0
sg15
I0
sg16
I1
sg17
I3
sg18
I1
sg19
I0
sg20
I0
ssS'Ch 3'
p1060
(dp1061
g7
I1
sg8
I0
sg9
I0
sg10
I5
sg11
I1
sg12
I0
sg13
I5
sg14
I0
sg15
I0
sg16
I1
sg17
I3
sg18
I1
sg19
I0
sg20
I0
ssS'Ch 2'
p1062
(dp1063
g7
I1
sg8
I0
sg9
I0
sg10
I5
sg11
I1
sg12
I0
sg13
I5
sg14
I0
sg15
I0
sg16
I1
sg17
I3
sg18
I1
sg19
I0
sg20
I0
ssS'Ch 24'
p1064
(dp1065
g7
I1
sg8
I0
sg9
I0
sg10
I5
sg11
I1
sg12
I0
sg13
I5
sg14
I0
sg15
I0
sg16
I1
sg17
I3
sg18
I1
sg19
I0
sg20
I0
ssS'Ch 25'
p1066
(dp1067
g7
I1
sg8
I0
sg9
I0
sg10
I5
sg11
I1
sg12
I0
sg13
I5
sg14
I0
sg15
I0
sg16
I1
sg17
I3
sg18
I1
sg19
I0
sg20
I0
ssS'Ch 26'
p1068
(dp1069
g7
I1
sg8
I0
sg9
I0
sg10
I5
sg11
I1
sg12
I0
sg13
I5
sg14
I0
sg15
I0
sg16
I1
sg17
I3
sg18
I1
sg19
I0
sg20
I0
ssS'Ch 27'
p1070
(dp1071
g7
I1
sg8
I0
sg9
I0
sg10
I5
sg11
I1
sg12
I0
sg13
I5
sg14
I0
sg15
I0
sg16
I1
sg17
I3
sg18
I1
sg19
I0
sg20
I0
ssS'Ch 20'
p1072
(dp1073
g7
I1
sg8
I0
sg9
I0
sg10
I5
sg11
I1
sg12
I0
sg13
I5
sg14
I0
sg15
I0
sg16
I1
sg17
I3
sg18
I1
sg19
I0
sg20
I0
ssS'Ch 21'
p1074
(dp1075
g7
I1
sg8
I0
sg9
I0
sg10
I5
sg11
I1
sg12
I0
sg13
I5
sg14
I0
sg15
I0
sg16
I1
sg17
I3
sg18
I1
sg19
I0
sg20
I0
ssS'Ch 22'
p1076
(dp1077
g7
I1
sg8
I0
sg9
I0
sg10
I5
sg11
I1
sg12
I0
sg13
I5
sg14
I0
sg15
I0
sg16
I1
sg17
I3
sg18
I1
sg19
I0
sg20
I0
ssS'Ch 23'
p1078
(dp1079
g7
I1
sg8
I0
sg9
I0
sg10
I5
sg11
I1
sg12
I0
sg13
I5
sg14
I0
sg15
I0
sg16
I1
sg17
I3
sg18
I1
sg19
I0
sg20
I0
ssS'Ch 60'
p1080
(dp1081
g7
I1
sg8
I0
sg9
I0
sg10
I5
sg11
I1
sg12
I0
sg13
I5
sg14
I0
sg15
I0
sg16
I1
sg17
I3
sg18
I1
sg19
I0
sg20
I0
ssS'Ch 61'
p1082
(dp1083
g7
I1
sg8
I0
sg9
I0
sg10
I5
sg11
I1
sg12
I0
sg13
I5
sg14
I0
sg15
I0
sg16
I1
sg17
I3
sg18
I1
sg19
I0
sg20
I0
ssS'Ch 48'
p1084
(dp1085
g7
I1
sg8
I0
sg9
I0
sg10
I5
sg11
I1
sg12
I0
sg13
I5
sg14
I0
sg15
I0
sg16
I1
sg17
I3
sg18
I1
sg19
I0
sg20
I0
ssS'Ch 49'
p1086
(dp1087
g7
I1
sg8
I0
sg9
I0
sg10
I5
sg11
I1
sg12
I0
sg13
I5
sg14
I0
sg15
I0
sg16
I1
sg17
I3
sg18
I1
sg19
I0
sg20
I0
ssS'Ch 28'
p1088
(dp1089
g7
I1
sg8
I0
sg9
I0
sg10
I5
sg11
I1
sg12
I0
sg13
I5
sg14
I0
sg15
I0
sg16
I1
sg17
I3
sg18
I1
sg19
I0
sg20
I0
ssS'Ch 29'
p1090
(dp1091
g7
I1
sg8
I0
sg9
I0
sg10
I5
sg11
I1
sg12
I0
sg13
I5
sg14
I0
sg15
I0
sg16
I1
sg17
I3
sg18
I1
sg19
I0
sg20
I0
ssS'Ch 46'
p1092
(dp1093
g7
I1
sg8
I0
sg9
I0
sg10
I5
sg11
I1
sg12
I0
sg13
I5
sg14
I0
sg15
I0
sg16
I1
sg17
I3
sg18
I1
sg19
I0
sg20
I0
ssS'Ch 50'
p1094
(dp1095
g7
I1
sg8
I0
sg9
I0
sg10
I5
sg11
I1
sg12
I0
sg13
I5
sg14
I0
sg15
I0
sg16
I1
sg17
I3
sg18
I1
sg19
I0
sg20
I0
ssS'Ch 63'
p1096
(dp1097
g7
I1
sg8
I0
sg9
I0
sg10
I5
sg11
I1
sg12
I0
sg13
I5
sg14
I0
sg15
I0
sg16
I1
sg17
I3
sg18
I1
sg19
I0
sg20
I0
ssg143
(dp1098
g145
I39
sg146
I2
sg147
I0
sg148
I14
sg149
I0
sg150
I9
sg151
I0
sg152
I1
sg153
I0
sg154
I19
sg155
I0
sg156
I15
sg157
I15
sg158
I0
sg159
I60
sg160
I2
sg161
I0
sg162
I1
sg163
I55
sg164
I7
sg165
I0
sg166
I0
sg167
I29
sg168
I0
sg169
I0
sg170
I50
sg171
I0
sg172
I55
sg173
I1
sg174
I4
sg175
I23
sg176
I0
sg177
I24
sg178
I0
sg179
I26
sg180
I0
sg181
I0
ssS'Ch 47'
p1099
(dp1100
g7
I1
sg8
I0
sg9
I0
sg10
I5
sg11
I1
sg12
I0
sg13
I5
sg14
I0
sg15
I0
sg16
I1
sg17
I3
sg18
I1
sg19
I0
sg20
I0
ssS'Ch 34'
p1101
(dp1102
g7
I1
sg8
I0
sg9
I0
sg10
I5
sg11
I1
sg12
I0
sg13
I5
sg14
I0
sg15
I0
sg16
I1
sg17
I3
sg18
I1
sg19
I0
sg20
I0
sssS'DAQ'
p1103
(dp1104
S'EN_TM_TCAM_pattern'
p1105
I74
sS'TP_Pos_nNeg'
p1106
I1
sS'L1_period_simulated'
p1107
I1023
sS'top_daq_pll_unlocked_sticky_flag'
p1108
I0
sS'AUTO_L1_EN'
p1109
I0
sS'B3Clk_sim_en'
p1110
I1
sS'Periodic_TP_EN_pattern'
p1111
I15
sS'Tpulse_generation_w_L1Chk_enable'
p1112
I1
sS'L1_scan_window_LOWER_edge'
p1113
I1567
sS'Periodic_L1En'
p1114
I0
sS'EXT_nINT_B3clk'
p1115
I0
sS'AUTO_TP_EN'
p1116
I0
sS'DAQPause_Set'
p1117
I0
sS'L1_scan_window_UPPER_edge'
p1118
I1299
sS'number_of_repetitions'
p1119
I515
sS'Enable_DAQPause_Until_First_Trigger'
p1120
I0
sS'DAQPause_Flag'
p1121
I0
sS'TP_width'
p1122
I8
sS'TL_nTM_ACQ'
p1123
I1
sS'GEMROC'
p1124
I0
sS'Simulated_L1_latency'
p1125
I358
sS'UDP_DATA_DESTINATION_IPPORT'
p1126
I0
sS'TO_ALL_TCAM_EN'
p1127
I0
sS'TP_period'
p1128
I512
sS'target_TCAM_ID'
p1129
I0
sS'Tpulse_generation_w_ext_trigger_enable'
p1130
I0
sS'UDP_DATA_DESTINATION_IPADDR'
p1131
I200
sss.